(lp0
(lp1
S'i'
p2
aS'told'
p3
aa(lp4
g3
aS'my'
p5
aa(lp6
g5
aS'mom'
p7
aa(lp8
g7
aS'that'
p9
aa(lp10
g9
aS'i'
p11
aa(lp12
g11
aS'was'
p13
aa(lp14
g13
aS'depressed'
p15
aa(lp16
g15
aS'and'
p17
aa(lp18
g17
aS'she'
p19
aa(lp20
g19
aS'said'
p21
aa(lp22
g21
aS'youre'
p23
aa(lp24
g23
aS'dumb'
p25
aa(lp26
g25
aS'you'
p27
aa(lp28
g27
aS'need'
p29
aa(lp30
g29
aS'to'
p31
aa(lp32
g31
aS'knock'
p33
aa(lp34
g33
aS'that'
p35
aa(lp36
g35
aS'shit'
p37
aa(lp38
g37
aS'off'
p39
aa(lp40
S'i'
p41
aS'forget'
p42
aa(lp43
g42
aS'that'
p44
aa(lp45
g44
aS'im'
p46
aa(lp47
g46
aS'depressed'
p48
aa(lp49
g48
aS'bc'
p50
aa(lp51
g50
aS'ive'
p52
aa(lp53
g52
aS'convinced'
p54
aa(lp55
g54
aS'myself'
p56
aa(lp57
g56
aS'that'
p58
aa(lp59
g58
aS'its'
p60
aa(lp61
g60
aS'normal'
p62
aa(lp63
g62
aS'to'
p64
aa(lp65
g64
aS'stare'
p66
aa(lp67
g66
aS'at'
p68
aa(lp69
g68
aS'my'
p70
aa(lp71
g70
aS'ceiling'
p72
aa(lp73
g72
aS'for'
p74
aa(lp75
g74
aS'hoursdaysweeks'
p76
aa(lp77
S'i'
p78
aS'only'
p79
aa(lp80
g79
aS'watched'
p81
aa(lp82
g81
aS'two'
p83
aa(lp84
g83
aS'episodes'
p85
aa(lp86
g85
aS'of'
p87
aa(lp88
g87
aS'13rw'
p89
aa(lp90
g89
aS'and'
p91
aa(lp92
g91
aS'im'
p93
aa(lp94
g93
aS'already'
p95
aa(lp96
g95
aS'depressed'
p97
aa(lp98
S'listening'
p99
aS'to'
p100
aa(lp101
g100
aS'adele'
p102
aa(lp103
g102
aS'and'
p104
aa(lp105
g104
aS'sam'
p106
aa(lp107
g106
aS'smith'
p108
aa(lp109
g108
aS'is'
p110
aa(lp111
g110
aS'equivalent'
p112
aa(lp113
g112
aS'to'
p114
aa(lp115
g114
aS'commiting'
p116
aa(lp117
g116
aS'suicide'
p118
aa(lp119
g118
aS'every'
p120
aa(lp121
g120
aS'second'
p122
aa(lp123
g122
aS'of'
p124
aa(lp125
g124
aS'every'
p126
aa(lp127
g126
aS'song'
p128
aa(lp129
S'im'
p130
aS'not'
p131
aa(lp132
g131
aS'depressed'
p133
aa(lp134
g133
aS'anymore'
p135
aa(lp136
g135
aS'ha'
p137
aa(lp138
g137
aS'ha'
p139
aa(lp140
g139
aS'jk'
p141
aa(lp142
g141
aS'april'
p143
aa(lp144
g143
aS'fools'
p145
aa(lp146
g145
aS'gotcha'
p147
aa(lp148
S'what'
p149
aS'suicide'
p150
aa(lp151
S'pornhubs'
p152
aS'april'
p153
aa(lp154
S'fools'
p155
aS'prank'
p156
aa(lp157
g156
aS'almost'
p158
aa(lp159
g158
aS'made'
p160
aa(lp161
g160
aS'me'
p162
aa(lp163
g162
aS'commit'
p164
aa(lp165
g164
aS'suicide'
p166
aa(lp167
S'yes'
p168
aS'i'
p169
aa(lp170
g169
aS'do'
p171
aa(lp172
g171
aS'and'
p173
aa(lp174
g173
aS'i'
p175
aa(lp176
g175
aS'also'
p177
aa(lp178
g177
aS'support'
p179
aa(lp180
g179
aS'encouraging'
p181
aa(lp182
g181
aS'a'
p183
aa(lp184
g183
aS'better'
p185
aa(lp186
g185
aS'system'
p187
aa(lp188
S'and'
p189
aS'the'
p190
aa(lp191
g190
aS'number'
p192
aa(lp193
g192
aS'one'
p194
aa(lp195
g194
aS'joke'
p196
aa(lp197
g196
aS'not'
p198
aa(lp199
g198
aS'to'
p200
aa(lp201
g200
aS'do'
p202
aa(lp203
g202
aS'on'
p204
aa(lp205
g204
aS'april'
p206
aa(lp207
S'fools'
p208
aS'day'
p209
aa(lp210
g209
aS'is'
p211
aa(lp212
g211
aS'to'
p213
aa(lp214
g213
aS'fake'
p215
aa(lp216
g215
aS'like'
p217
aa(lp218
g217
aS'youre'
p219
aa(lp220
g219
aS'pregnant'
p221
aa(lp222
S'top'
p223
aS'10'
p224
aa(lp225
g224
aS'bridges'
p226
aa(lp227
g226
aS'in'
p228
aa(lp229
g228
aS'the'
p230
aa(lp231
g230
aS'world'
p232
aa(lp233
g232
aS'where'
p234
aa(lp235
g234
aS'people'
p236
aa(lp237
g236
aS'commit'
p238
aa(lp239
S'suicide'
p240
aS''
p241
aa(lp242
g241
aS'recently'
p243
aa(lp244
g243
aS'a'
p245
aa(lp246
g245
aS'medical'
p247
aa(lp248
g247
aS'doctor'
p249
aa(lp250
g249
aS'took'
p251
aa(lp252
g251
aS'his'
p253
aa(lp254
g253
aS'own'
p255
aa(lp256
g255
aS'life'
p257
aa(lp258
g257
aS'on'
p259
aa(lp260
g259
aS'third'
p261
aa(lp262
S'suicide'
p263
aS'is'
p264
aa(lp265
g264
aS'real'
p266
aa(lp267
g266
aS'become'
p268
aa(lp269
g268
aS'aware'
p270
aa(lp271
g270
aS'of'
p272
aa(lp273
g272
aS'the'
p274
aa(lp275
g274
aS'emotional'
p276
aa(lp277
g276
aS'attacks'
p278
aa(lp279
g278
aS'you'
p280
aa(lp281
g280
aS'send'
p282
aa(lp283
g282
aS'towards'
p284
aa(lp285
g284
aS'people'
p286
aa(lp287
g286
aS'they'
p288
aa(lp289
g288
aS'hurt'
p290
aa(lp291
g290
aS'just'
p292
aa(lp293
g292
aS'as'
p294
aa(lp295
g294
aS'much'
p296
aa(lp297
g296
aS'as'
p298
aa(lp299
g298
aS'any'
p300
aa(lp301
g300
aS'physical'
p302
aa(lp303
g302
aS'abuse'
p304
aa(lp305
S'baking'
p306
aS'can'
p307
aa(lp308
g307
aS'save'
p309
aa(lp310
g309
aS'depressed'
p311
aa(lp312
g311
aS'souls'
p313
aa(lp314
S'it'
p315
aS'is'
p316
aa(lp317
g316
aS'so'
p318
aa(lp319
g318
aS'important'
p320
aa(lp321
g320
aS'to'
p322
aa(lp323
g322
aS'recognize'
p324
aa(lp325
g324
aS'the'
p326
aa(lp327
g326
aS'signs'
p328
aa(lp329
g328
aS'of'
p330
aa(lp331
g330
aS'your'
p332
aa(lp333
g332
aS'friendsloved'
p334
aa(lp335
g334
aS'ones'
p336
aa(lp337
g336
aS'who'
p338
aa(lp339
g338
aS'may'
p340
aa(lp341
g340
aS'be'
p342
aa(lp343
g342
aS'depressed'
p344
aa(lp345
g344
aS'or'
p346
aa(lp347
g346
aS'suicidal'
p348
aa(lp349
S'people'
p350
aS'who'
p351
aa(lp352
g351
aS'dont'
p353
aa(lp354
g353
aS'support'
p355
aa(lp356
g355
aS'trans'
p357
aa(lp358
g357
aS'folks'
p359
aa(lp360
g359
aS'until'
p361
aa(lp362
g361
aS'their'
p363
aa(lp364
g363
aS'kid'
p365
aa(lp366
g365
aS'tries'
p367
aa(lp368
g367
aS'to'
p369
aa(lp370
g369
aS'commit'
p371
aa(lp372
S'suicide'
p373
aS'for'
p374
aa(lp375
g374
aS'lack'
p376
aa(lp377
g376
aS'of'
p378
aa(lp379
g378
aS'said'
p380
aa(lp381
g380
aS'support'
p382
aa(lp383
S'friend'
p384
aS'i'
p385
aa(lp386
g385
aS'feel'
p387
aa(lp388
g387
aS'depressed'
p389
aa(lp390
g389
aS'lately'
p391
aa(lp392
g391
aS'me'
p393
aa(lp394
g393
aS'did'
p395
aa(lp396
g395
aS'you'
p397
aa(lp398
g397
aS'try'
p399
aa(lp400
g399
aS'unplugging'
p401
aa(lp402
g401
aS'and'
p403
aa(lp404
g403
aS'turning'
p405
aa(lp406
g405
aS'back'
p407
aa(lp408
g407
aS'on'
p409
aa(lp410
S'was'
p411
aS'so'
p412
aa(lp413
g412
aS'depressed'
p414
aa(lp415
g414
aS'throughout'
p416
aa(lp417
g416
aS'my'
p418
aa(lp419
g418
aS'whole'
p420
aa(lp421
g420
aS'pregnancy'
p422
aa(lp423
g422
aS'lol'
p424
aa(lp425
S'joint'
p426
aS'suicide'
p427
aa(lp428
S'is'
p429
aS'the'
p430
aa(lp431
g430
aS'real'
p432
aa(lp433
g432
aS'way'
p434
aa(lp435
g434
aS'to'
p436
aa(lp437
g436
aS'hang'
p438
aa(lp439
g438
aS'w'
p440
aa(lp441
g440
aS'friends'
p442
aa(lp443
S'now'
p444
aS'i'
p445
aa(lp446
g445
aS'can'
p447
aa(lp448
g447
aS'go'
p449
aa(lp450
g449
aS'back'
p451
aa(lp452
g451
aS'to'
p453
aa(lp454
g453
aS'being'
p455
aa(lp456
g455
aS'depressed'
p457
aa(lp458
g457
aS'af'
p459
aa(lp460
g459
aS'and'
p461
aa(lp462
g461
aS'sleeping'
p463
aa(lp464
g463
aS'my'
p465
aa(lp466
g465
aS'life'
p467
aa(lp468
g467
aS'away'
p469
aa(lp470
S'i'
p471
aS'would'
p472
aa(lp473
g472
aS'rather'
p474
aa(lp475
g474
aS'be'
p476
aa(lp477
S'depressed'
p478
aS'than'
p479
aa(lp480
g479
aS'see'
p481
aa(lp482
g481
aS'someone'
p483
aa(lp484
g483
aS'i'
p485
aa(lp486
g485
aS'care'
p487
aa(lp488
g487
aS'about'
p489
aa(lp490
g489
aS'sad'
p491
aa(lp492
g491
aS'that'
p493
aa(lp494
g493
aS'just'
p495
aa(lp496
g495
aS'makes'
p497
aa(lp498
g497
aS'my'
p499
aa(lp500
g499
aS'heart'
p501
aa(lp502
g501
aS'hurt'
p503
aa(lp504
S'this'
p505
aS'world'
p506
aa(lp507
g506
aS'gives'
p508
aa(lp509
g508
aS'no'
p510
aa(lp511
g510
aS'fucks'
p512
aa(lp513
g512
aS'about'
p514
aa(lp515
g514
aS'mental'
p516
aa(lp517
g516
aS'illness'
p518
aa(lp519
g518
aS'but'
p520
aa(lp521
g520
aS'is'
p522
aa(lp523
g522
aS'quick'
p524
aa(lp525
g524
aS'to'
p526
aa(lp527
g526
aS'care'
p528
aa(lp529
g528
aS'when'
p530
aa(lp531
g530
aS'people'
p532
aa(lp533
S'suicide'
p534
aS'im'
p535
aa(lp536
g535
aS'over'
p537
aa(lp538
g537
aS'it'
p539
aa(lp540
S'trying'
p541
aS'to'
p542
aa(lp543
g542
aS'explain'
p544
aa(lp545
g544
aS'getting'
p546
aa(lp547
g546
aS'incredibly'
p548
aa(lp549
g548
aS'depressed'
p550
aa(lp551
g550
aS'out'
p552
aa(lp553
g552
aS'of'
p554
aa(lp555
S'the'
p556
aS'blue'
p557
aa(lp558
g557
aS'with'
p559
aa(lp560
g559
aS'no'
p561
aa(lp562
g561
aS'trigger'
p563
aa(lp564
g563
aS'or'
p565
aa(lp566
g565
aS'warning'
p567
aa(lp568
g567
aS'is'
p569
aa(lp570
g569
aS'really'
p571
aa(lp572
g571
aS'hard'
p573
aa(lp574
S'rest'
p575
aS'in'
p576
aa(lp577
g576
aS'peace'
p578
aa(lp579
S'depressed'
p580
aS'but'
p581
aa(lp582
g581
aS'im'
p583
aa(lp584
g583
aS'lit'
p585
aa(lp586
S'depression'
p587
aS'how'
p588
aa(lp589
g588
aS'lack'
p590
aa(lp591
S'of'
p592
aS'awareness'
p593
aa(lp594
g593
aS'led'
p595
aa(lp596
g595
aS'to'
p597
aa(lp598
g597
aS'a'
p599
aa(lp600
g599
aS'tragic'
p601
aa(lp602
g601
aS'suicide'
p603
aa(lp604
S'one'
p605
aS'of'
p606
aa(lp607
g606
aS'my'
p608
aa(lp609
g608
aS'biggest'
p610
aa(lp611
g610
aS'flaws'
p612
aa(lp613
g612
aS'is'
p614
aa(lp615
g614
aS'shoving'
p616
aa(lp617
g616
aS'food'
p618
aa(lp619
g618
aS'in'
p620
aa(lp621
g620
aS'my'
p622
aa(lp623
g622
aS'mouth'
p624
aa(lp625
g624
aS'every'
p626
aa(lp627
g626
aS'10'
p628
aa(lp629
g628
aS'seconds'
p630
aa(lp631
g630
aS'when'
p632
aa(lp633
g632
aS'im'
p634
aa(lp635
S'all'
p636
aS'them'
p637
aa(lp638
g637
aS'dam'
p639
aa(lp640
g639
aS'crystals'
p641
aa(lp642
g641
aS'but'
p643
aa(lp644
g643
aS'yo'
p645
aa(lp646
g645
aS'ass'
p647
aa(lp648
g647
aS'still'
p649
aa(lp650
g649
aS'depressed'
p651
aa(lp652
g651
aS'amp'
p653
aa(lp654
g653
aS'full'
p655
aa(lp656
g655
aS'of'
p657
aa(lp658
g657
aS'anxiety'
p659
aa(lp660
g659
aS'lol'
p661
aa(lp662
S'suicide'
p663
aS'should'
p664
aa(lp665
g664
aS'never'
p666
aa(lp667
g666
aS'ever'
p668
aa(lp669
g668
aS'be'
p670
aa(lp671
g670
aS'an'
p672
aa(lp673
g672
aS'option'
p674
aa(lp675
g674
ag241
aa(lp676
g241
aS'selena'
p677
aa(lp678
g677
aS'gomez'
p679
aa(lp680
g241
aS'into'
p681
aa(lp682
g681
aS'a'
p683
aa(lp684
g683
aS'corner'
p685
aa(lp686
g685
aS'and'
p687
aa(lp688
g687
aS'dont'
p689
aa(lp690
g689
aS'know'
p691
aa(lp692
g691
aS'how'
p693
aa(lp694
g693
aS'to'
p695
aa(lp696
S'do'
p697
aS'anything'
p698
aa(lp699
g698
aS'other'
p700
aa(lp701
g700
aS'than'
p702
aa(lp703
g702
aS'playing'
p704
aa(lp705
g704
aS'the'
p706
aa(lp707
g706
aS'victim'
p708
aa(lp709
g708
aS'to'
p710
aa(lp711
g710
aS'get'
p712
aa(lp713
g712
aS'out'
p714
aa(lp715
S'of'
p716
aS'it'
p717
aa(lp718
g717
aS'suicide'
p719
aa(lp720
S'is'
p721
aS'no'
p722
aa(lp723
g722
aS'joke'
p724
aa(lp725
g724
aS'how'
p726
aa(lp727
g726
aS'fucking'
p728
aa(lp729
g728
aS'dare'
p730
aa(lp731
g730
aS'you'
p732
aa(lp733
S'is'
p734
aS'jjong'
p735
aa(lp736
g735
aS'depressed'
p737
aa(lp738
g737
aS'i'
p739
aa(lp740
S'feel'
p741
aS'like'
p742
aa(lp743
g742
aS'he'
p744
aa(lp745
g744
aS'is'
p746
aa(lp747
g746
aS'in'
p748
aa(lp749
g748
aS'that'
p750
aa(lp751
g750
aS'state'
p752
aa(lp753
g752
aS'of'
p754
aa(lp755
g754
aS'mind'
p756
aa(lp757
g756
ag241
aa(lp758
g241
aS'he'
p759
aa(lp760
g759
aS'rlyyyyyyyyy'
p761
aa(lp762
g761
aS'needs'
p763
aa(lp764
g763
aS'to'
p765
aa(lp766
g765
aS'rest'
p767
aa(lp768
S'tony'
p769
aS'actually'
p770
aa(lp771
g770
aS'killed'
p772
aa(lp773
g772
aS'her'
p774
aa(lp775
g774
aS'and'
p776
aa(lp777
g776
aS'made'
p778
aa(lp779
g778
aS'it'
p780
aa(lp781
g780
aS'seem'
p782
aa(lp783
g782
aS'like'
p784
aa(lp785
g784
aS'a'
p786
aa(lp787
g786
aS'suicide'
p788
aa(lp789
S'depressed'
p790
aS'its'
p791
aa(lp792
g791
aS'cray'
p793
aa(lp794
S'5'
p795
aS'more'
p796
aa(lp797
g796
aS'weeks'
p798
aa(lp799
g798
aS'of'
p800
aa(lp801
g800
aS'pretending'
p802
aa(lp803
g802
aS'im'
p804
aa(lp805
S'depressed'
p806
aS'on'
p807
aa(lp808
g807
aS'tv2'
p809
aa(lp810
S'holy'
p811
aS'fuck'
p812
aa(lp813
g812
aS'im'
p814
aa(lp815
S'check'
p816
aS'out'
p817
aa(lp818
g817
aS'suicide'
p819
aa(lp820
g819
aS'squad'
p821
aa(lp822
g821
aS'rebirth'
p823
aa(lp824
g823
aS'directors'
p825
aa(lp826
g825
aS'cut'
p827
aa(lp828
g827
aS'near'
p829
aa(lp830
g829
aS'mint'
p831
aa(lp832
g831
aS'nm'
p833
aa(lp834
g833
aS'condition'
p835
aa(lp836
g835
aS'via'
p837
aa(lp838
S'why'
p839
aS'is'
p840
aa(lp841
S'the'
p842
aS'suicide'
p843
aa(lp844
g843
aS'rate'
p845
aa(lp846
g845
aS'among'
p847
aa(lp848
g847
aS'veterinarians'
p849
aa(lp850
g849
aS'so'
p851
aa(lp852
g851
aS'high'
p853
aa(lp854
g853
aS'via'
p855
aa(lp856
S'i'
p857
aS'added'
p858
aa(lp859
g858
aS'a'
p860
aa(lp861
g860
aS'video'
p862
aa(lp863
g862
aS'to'
p864
aa(lp865
S'a'
p866
aS'playlist'
p867
aa(lp868
g867
aS'suicide'
p869
aa(lp870
S'how'
p871
aS'ironic'
p872
aa(lp873
S'whats'
p874
aS'a'
p875
aa(lp876
g875
aS'surefire'
p877
aa(lp878
g877
aS'way'
p879
aa(lp880
S'to'
p881
aS'suicide'
p882
aa(lp883
S'happy'
p884
aS'to'
p885
aa(lp886
g885
aS'of'
p887
aa(lp888
g887
aS'contributed'
p889
aa(lp890
g889
aS'with'
p891
aa(lp892
g891
aS'my'
p893
aa(lp894
g893
aS'semicolon'
p895
aa(lp896
g895
aS'in'
p897
aa(lp898
g897
aS'your'
p899
aa(lp900
g899
aS'project'
p901
aa(lp902
g901
aS'rip'
p903
aa(lp904
S'suicide'
p905
aS'attempt'
p906
aa(lp907
S'than'
p908
aS'play'
p909
aa(lp910
g909
aS'the'
p911
aa(lp912
S'im'
p913
aS'the'
p914
aa(lp915
g914
aS'little'
p916
aa(lp917
g916
aS'kid'
p918
aa(lp919
S'and'
p920
aS'lonely'
p921
aa(lp922
g921
aS'sincr'
p923
aa(lp924
g923
aS'one'
p925
aa(lp926
g925
aS'i'
p927
aa(lp928
g927
aS'love'
p929
aa(lp930
g929
aS'wants'
p931
aa(lp932
g931
aS'nothing'
p933
aa(lp934
g933
aS'to'
p935
aa(lp936
S'do'
p937
aS'with'
p938
aa(lp939
g938
aS'me'
p940
aa(lp941
g940
aS'mistress'
p942
aa(lp943
S'oh'
p944
aS'dear'
p945
aa(lp946
g945
aS'next'
p947
aa(lp948
g947
aS'tattoo'
p949
aa(lp950
g949
aS'it'
p951
aa(lp952
g951
aS'was'
p953
aa(lp954
g953
aS'on'
p955
aa(lp956
g955
aS'my'
p957
aa(lp958
g957
aS'list'
p959
aa(lp960
g959
aS'but'
p961
aa(lp962
g961
aS'now'
p963
aa(lp964
g963
aS'its'
p965
aa(lp966
g965
aS'priority'
p967
aa(lp968
S'the'
p969
aS'key'
p970
aa(lp971
g970
aS'to'
p972
aa(lp973
g972
aS'become'
p974
aa(lp975
g974
aS'vegeterian'
p976
aa(lp977
g976
aS'vegan'
p978
aa(lp979
g978
aS'is'
p980
aa(lp981
g980
aS'not'
p982
aa(lp983
S'to'
p984
aS'be'
p985
aa(lp986
S'depressed'
p987
aS'because'
p988
aa(lp989
g988
aS'comfort'
p990
aa(lp991
g990
aS'food'
p992
aa(lp993
g992
aS'is'
p994
aa(lp995
S'not'
p996
aS'vegetarian'
p997
aa(lp998
g997
aS'friendly'
p999
aa(lp1000
S'new'
p1001
aS'release'
p1002
aa(lp1003
g1002
aS'transfer'
p1004
aa(lp1005
g1004
aS'of'
p1006
aa(lp1007
g1006
aS'pain'
p1008
aa(lp1009
g1008
aS'by'
p1010
aa(lp1011
g1010
aS'rj'
p1012
aa(lp1013
g1012
aS'belle'
p1014
aa(lp1015
g1014
aS'gt'
p1016
aa(lp1017
g1016
aS'lt'
p1018
aa(lp1019
g1018
aS'suicide'
p1020
aa(lp1021
g1020
aS'loss'
p1022
aa(lp1023
g1022
aS'amp'
p1024
aa(lp1025
g1024
aS'grief'
p1026
aa(lp1027
g1026
aS'journey'
p1028
aa(lp1029
g1028
aS'nonfiction'
p1030
aa(lp1031
S'truly'
p1032
aS'thought'
p1033
aa(lp1034
g1033
aS'this'
p1035
aa(lp1036
g1035
aS'was'
p1037
aa(lp1038
g1037
aS'ellen'
p1039
aa(lp1040
S'why'
p1041
aS'all'
p1042
aa(lp1043
g1042
aS'these'
p1044
aa(lp1045
g1044
aS'pretty'
p1046
aa(lp1047
g1046
aS'people'
p1048
aa(lp1049
g1048
aS'committing'
p1050
aa(lp1051
g1050
aS'suicide'
p1052
aa(lp1053
S'squad'
p1054
aS'2'
p1055
aa(lp1056
g1055
aS'could'
p1057
aa(lp1058
g1057
aS'have'
p1059
aa(lp1060
g1059
aS'slade'
p1061
aa(lp1062
g1061
aS'in'
p1063
aa(lp1064
g1063
aS'it'
p1065
aa(lp1066
g1065
aS'as'
p1067
aa(lp1068
g1067
aS'well'
p1069
aa(lp1070
S'you'
p1071
aS'can'
p1072
aa(lp1073
g1072
aS'also'
p1074
aa(lp1075
g1074
aS'be'
p1076
aa(lp1077
g1076
aS'generic'
p1078
aa(lp1079
g1078
aS'and'
p1080
aa(lp1081
g1080
aS'name'
p1082
aa(lp1083
g1082
aS'your'
p1084
aa(lp1085
g1084
aS'knife'
p1086
aa(lp1087
g1086
aS'three'
p1088
aa(lp1089
g1088
aS'dollar'
p1090
aa(lp1091
g1090
aS'signs'
p1092
aa(lp1093
g1092
aS'that'
p1094
aa(lp1095
g1094
aS'is'
p1096
aa(lp1097
S'not'
p1098
aS'generic'
p1099
aa(lp1100
g1099
ag241
aa(lp1101
g241
aS'means'
p1102
aa(lp1103
g1102
aS'south'
p1104
aa(lp1105
g1104
aS'side'
p1106
aa(lp1107
g1106
aS'suicide'
p1108
aa(lp1109
g1108
aS'also'
p1110
aa(lp1111
g1110
aS'when'
p1112
aa(lp1113
g1112
aS'are'
p1114
aa(lp1115
g1114
aS'b'
p1116
aa(lp1117
g1116
aS'and'
p1118
aa(lp1119
g1118
aS'po'
p1120
aa(lp1121
S'teenage'
p1122
aS'suicidelt3'
p1123
aa(lp1124
S'this'
p1125
aS'video'
p1126
aa(lp1127
g1126
aS'will'
p1128
aa(lp1129
g1128
aS'be'
p1130
aa(lp1131
g1130
aS'my'
p1132
aa(lp1133
g1132
aS'suicide'
p1134
aa(lp1135
g1134
aS'note'
p1136
aa(lp1137
S'i'
p1138
aS'tell'
p1139
aa(lp1140
g1139
aS'you'
p1141
aa(lp1142
g1141
aS'the'
p1143
aa(lp1144
g1143
aS'suffering'
p1145
aa(lp1146
g1145
aS'is'
p1147
aa(lp1148
g1147
aS'too'
p1149
aa(lp1150
g1149
aS'much'
p1151
aa(lp1152
g1151
aS'and'
p1153
aa(lp1154
S'the'
p1155
aS'only'
p1156
aa(lp1157
g1156
aS'escape'
p1158
aa(lp1159
g1158
aS'is'
p1160
aa(lp1161
g1160
aS'suicide'
p1162
aa(lp1163
g1162
aS'as'
p1164
aa(lp1165
g1164
aS'lawyers'
p1166
aa(lp1167
g1166
aS'psychiatrists'
p1168
aa(lp1169
g1168
aS'judges'
p1170
aa(lp1171
g1170
aS'policegvt'
p1172
aa(lp1173
g1172
aS'are'
p1174
aa(lp1175
g1174
aS'all'
p1176
aa(lp1177
g1176
aS'satanists'
p1178
aa(lp1179
g1178
aS'as'
p1180
aa(lp1181
S'if'
p1182
aS'u'
p1183
aa(lp1184
g1183
aS'gonna'
p1185
aa(lp1186
g1185
aS'commit'
p1187
aa(lp1188
S'suicide'
p1189
aS'at'
p1190
aa(lp1191
g1190
aS'least'
p1192
aa(lp1193
g1192
aS'hang'
p1194
aa(lp1195
g1194
aS'urself'
p1196
aa(lp1197
g1196
aS'with'
p1198
aa(lp1199
g1198
aS'gucci'
p1200
aa(lp1201
g1200
aS'belt'
p1202
aa(lp1203
S'if'
p1204
aS'someone'
p1205
aa(lp1206
g1205
aS'is'
p1207
aa(lp1208
g1207
aS'depressed'
p1209
aa(lp1210
g1209
aS'do'
p1211
aa(lp1212
g1211
aS'not'
p1213
aa(lp1214
g1213
aS'tell'
p1215
aa(lp1216
g1215
aS'them'
p1217
aa(lp1218
g1217
aS'to'
p1219
aa(lp1220
g1219
aS'just'
p1221
aa(lp1222
g1221
aS'get'
p1223
aa(lp1224
g1223
aS'over'
p1225
aa(lp1226
S'depressed'
p1227
aS'earphones'
p1228
aa(lp1229
g1228
aS'in'
p1230
aa(lp1231
g1230
aS'volume'
p1232
aa(lp1233
g1232
aS'up'
p1234
aa(lp1235
g1234
aS'ignore'
p1236
aa(lp1237
g1236
aS'the'
p1238
aa(lp1239
S'lol'
p1240
aS'you'
p1241
aa(lp1242
g1241
aS'guys'
p1243
aa(lp1244
g1243
aS'cry'
p1245
aa(lp1246
g1245
aS'about'
p1247
aa(lp1248
g1247
aS'suicide'
p1249
aa(lp1250
g1249
aS'yet'
p1251
aa(lp1252
g1251
aS'u'
p1253
aa(lp1254
g1253
aS'want'
p1255
aa(lp1256
g1255
aS'cohen'
p1257
aa(lp1258
g1257
aS'to'
p1259
aa(lp1260
S'get'
p1261
aS'beat'
p1262
aa(lp1263
g1262
aS'with'
p1264
aa(lp1265
g1264
aS'a'
p1266
aa(lp1267
g1266
aS'bat'
p1268
aa(lp1269
g1268
aS'ok'
p1270
aa(lp1271
g1270
aS'nice'
p1272
aa(lp1273
g1272
aS'reasoning'
p1274
aa(lp1275
S'is'
p1276
aS'it'
p1277
aa(lp1278
g1277
aS'ok'
p1279
aa(lp1280
g1279
aS'to'
p1281
aa(lp1282
g1281
aS'feel'
p1283
aa(lp1284
g1283
aS'this'
p1285
aa(lp1286
g1285
aS'depressed'
p1287
aa(lp1288
g1287
aS'at'
p1289
aa(lp1290
g1289
aS'20'
p1291
aa(lp1292
S'status'
p1293
ag241
aa(lp1294
g241
aS'emotionally'
p1295
aa(lp1296
g1295
aS'im'
p1297
aa(lp1298
g1297
aS'hurt'
p1299
aa(lp1300
g1299
aS'mentally'
p1301
aa(lp1302
g1301
aS'im'
p1303
aa(lp1304
g1303
aS'stressed'
p1305
aa(lp1306
g1305
aS'spiritually'
p1307
aa(lp1308
g1307
aS'im'
p1309
aa(lp1310
S'depressed'
p1311
aS'physically'
p1312
aa(lp1313
g1312
aS'i'
p1314
aa(lp1315
g1314
aS'smile'
p1316
aa(lp1317
S'oh'
p1318
aS'no'
p1319
aa(lp1320
g1319
aS'baby'
p1321
aa(lp1322
g1321
aS'what'
p1323
aa(lp1324
g1323
aS'is'
p1325
aa(lp1326
g1325
aS'you'
p1327
aa(lp1328
g1327
aS'doing'
p1329
aa(lp1330
S'i'
p1331
aS'dont'
p1332
aa(lp1333
S'know'
p1334
aS'but'
p1335
aa(lp1336
S'love'
p1337
aS'and'
p1338
aa(lp1339
g1338
aS'war'
p1340
aa(lp1341
g1340
aS'both'
p1342
aa(lp1343
g1342
aS'kill'
p1344
aa(lp1345
g1344
ag241
aa(lp1346
S'the'
p1347
aS'national'
p1348
aa(lp1349
g1348
aS'suicide'
p1350
aa(lp1351
g1350
aS'hotline'
p1352
aa(lp1353
g1352
aS'number'
p1354
aa(lp1355
g1354
aS'is'
p1356
aa(lp1357
g1356
aS'18002738255'
p1358
aa(lp1359
g1358
aS'you'
p1360
aa(lp1361
g1360
aS'are'
p1362
aa(lp1363
g1362
aS'not'
p1364
aa(lp1365
g1364
aS'alone'
p1366
aa(lp1367
S'no'
p1368
aS'im'
p1369
aa(lp1370
S'daily'
p1371
aS'tweet'
p1372
aa(lp1373
g1372
aS'suicide'
p1374
aa(lp1375
g1374
aS'isnt'
p1376
aa(lp1377
g1376
aS'the'
p1378
aa(lp1379
g1378
aS'answer'
p1380
aa(lp1381
g1380
aS'people'
p1382
aa(lp1383
g1382
aS'are'
p1384
aa(lp1385
g1384
aS'there'
p1386
aa(lp1387
g1386
aS'for'
p1388
aa(lp1389
g1388
aS'you'
p1390
aa(lp1391
g1390
aS'or'
p1392
aa(lp1393
g1392
aS'call'
p1394
aa(lp1395
g1394
aS'8002738255'
p1396
aa(lp1397
g1396
aS'or'
p1398
aa(lp1399
g1398
aS'tweetdm'
p1400
aa(lp1401
g1400
aS'me'
p1402
aa(lp1403
S'do'
p1404
aS'you'
p1405
aa(lp1406
g1405
aS'really'
p1407
aa(lp1408
g1407
aS'want'
p1409
aa(lp1410
g1409
aS'to'
p1411
aa(lp1412
g1411
aS'provoke'
p1413
aa(lp1414
g1413
aS'the'
p1415
aa(lp1416
g1415
aS'youtube'
p1417
aa(lp1418
g1417
aS'community'
p1419
aa(lp1420
g1419
aS'seriously'
p1421
aa(lp1422
g1421
aS'its'
p1423
aa(lp1424
g1423
aS'suicide'
p1425
aa(lp1426
S'at'
p1427
aS'this'
p1428
aa(lp1429
g1428
aS'point'
p1430
aa(lp1431
g1430
aS'stop'
p1432
aa(lp1433
g1432
aS'it'
p1434
aa(lp1435
g1434
aS'get'
p1436
aa(lp1437
g1436
aS'some'
p1438
aa(lp1439
g1438
aS'help'
p1440
aa(lp1441
S'i'
p1442
aS'keep'
p1443
aa(lp1444
g1443
aS'waiting'
p1445
aa(lp1446
g1445
aS'for'
p1447
aa(lp1448
g1447
aS'hannahs'
p1449
aa(lp1450
g1449
aS'suicide'
p1451
aa(lp1452
g1451
aS'to'
p1453
aa(lp1454
S'be'
p1455
aS'a'
p1456
aa(lp1457
g1456
aS'hoax'
p1458
aa(lp1459
g1458
aS'and'
p1460
aa(lp1461
g1460
aS'for'
p1462
aa(lp1463
g1462
aS'her'
p1464
aa(lp1465
g1464
aS'to'
p1466
aa(lp1467
g1466
aS'come'
p1468
aa(lp1469
g1468
aS'back'
p1470
aa(lp1471
g1470
aS'i'
p1472
aa(lp1473
S'dont'
p1474
aS'want'
p1475
aa(lp1476
g1475
aS'her'
p1477
aa(lp1478
S'be'
p1479
aS'dead'
p1480
aa(lp1481
S'not'
p1482
aS'gonna'
p1483
aa(lp1484
g1483
aS'lie'
p1485
aa(lp1486
g1485
aS'im'
p1487
aa(lp1488
g1487
aS'really'
p1489
aa(lp1490
g1489
aS'depressed'
p1491
aa(lp1492
g1491
aS'right'
p1493
aa(lp1494
g1493
aS'now'
p1495
aa(lp1496
g1495
aS'a'
p1497
aa(lp1498
g1497
aS'girl'
p1499
aa(lp1500
g1499
aS'that'
p1501
aa(lp1502
g1501
aS'goes'
p1503
aa(lp1504
g1503
aS'to'
p1505
aa(lp1506
g1505
aS'my'
p1507
aa(lp1508
g1507
aS'school'
p1509
aa(lp1510
g1509
aS'killed'
p1511
aa(lp1512
g1511
aS'herself'
p1513
aa(lp1514
g1513
aS'last'
p1515
aa(lp1516
g1515
aS'night'
p1517
aa(lp1518
g1517
aS'it'
p1519
aa(lp1520
g1519
aS'makes'
p1521
aa(lp1522
g1521
aS'me'
p1523
aa(lp1524
g1523
aS'sad'
p1525
aa(lp1526
g1525
aS'to'
p1527
aa(lp1528
g1527
aS'hear'
p1529
aa(lp1530
g1529
ag241
aa(lp1531
g241
aS'rip'
p1532
aa(lp1533
g1532
aS'abby'
p1534
aa(lp1535
g1534
aS'lt3'
p1536
aa(lp1537
S'trigger'
p1538
aS'warning'
p1539
aa(lp1540
g1539
aS'suicide'
p1541
aa(lp1542
S'i'
p1543
aS'wouldnt'
p1544
aa(lp1545
g1544
aS'say'
p1546
aa(lp1547
g1546
aS'im'
p1548
aa(lp1549
g1548
aS'depressedi'
p1550
aa(lp1551
g1550
aS'would'
p1552
aa(lp1553
g1552
aS'just'
p1554
aa(lp1555
g1554
aS'say'
p1556
aa(lp1557
g1556
aS'that'
p1558
aa(lp1559
S'i'
p1560
aS'hate'
p1561
aa(lp1562
g1561
aS'myself'
p1563
aa(lp1564
S'hey'
p1565
aS'lets'
p1566
aa(lp1567
g1566
aS'commit'
p1568
aa(lp1569
S'at'
p1570
aS'the'
p1571
aa(lp1572
g1571
aS'exact'
p1573
aa(lp1574
g1573
aS'same'
p1575
aa(lp1576
g1575
aS'moment'
p1577
aa(lp1578
g1577
aS'when'
p1579
aa(lp1580
g1579
aS'saturday'
p1581
aa(lp1582
g1581
aS'ends'
p1583
aa(lp1584
S'kuwait'
p1585
aS'woman'
p1586
aa(lp1587
g1586
aS'detained'
p1588
aa(lp1589
g1588
aS'for'
p1590
aa(lp1591
g1590
aS'filming'
p1592
aa(lp1593
g1592
aS'maids'
p1594
aa(lp1595
g1594
aS'suicide'
p1596
aa(lp1597
S'attempt'
p1598
aS'without'
p1599
aa(lp1600
g1599
aS'helping'
p1601
aa(lp1602
S'suicide'
p1603
aS'via'
p1604
aa(lp1605
S'have'
p1606
aS'my'
p1607
aa(lp1608
g1607
aS'kids'
p1609
aa(lp1610
S'depressed'
p1611
aS'bcs'
p1612
aa(lp1613
g1612
aS'youre'
p1614
aa(lp1615
g1614
aS'my'
p1616
aa(lp1617
g1616
aS'sister'
p1618
aa(lp1619
g1618
aS'maria'
p1620
aa(lp1621
g1620
aS'woah'
p1622
aa(lp1623
g1622
aS'im'
p1624
aa(lp1625
S'career'
p1626
aS'suicides'
p1627
aa(lp1628
g1627
aS'not'
p1629
aa(lp1630
g1629
aS'so'
p1631
aa(lp1632
g1631
aS'bad'
p1633
aa(lp1634
g1633
aS'when'
p1635
aa(lp1636
g1635
aS'you'
p1637
aa(lp1638
g1637
aS'consider'
p1639
aa(lp1640
g1639
aS'the'
p1641
aa(lp1642
g1641
aS'alternative'
p1643
aa(lp1644
g1643
aS'is'
p1645
aa(lp1646
S'suicide'
p1647
aS'by'
p1648
aa(lp1649
g1648
aS'career'
p1650
aa(lp1651
S'hollywood'
p1652
aS'has'
p1653
aa(lp1654
g1653
aS'messed'
p1655
aa(lp1656
g1655
aS'up'
p1657
aa(lp1658
g1657
aS'so'
p1659
aa(lp1660
g1659
aS'many'
p1661
aa(lp1662
g1661
aS'young'
p1663
aa(lp1664
g1663
aS'stars'
p1665
aa(lp1666
g1665
aS'suicide'
p1667
aa(lp1668
g1667
aS'drugs'
p1669
aa(lp1670
g1669
aS'time'
p1671
aa(lp1672
g1671
aS'for'
p1673
aa(lp1674
g1673
aS'them'
p1675
aa(lp1676
S'get'
p1677
aS'caught'
p1678
aa(lp1679
S'u'
p1680
aS'live'
p1681
aa(lp1682
g1681
aS'off'
p1683
aa(lp1684
g1683
aS'your'
p1685
aa(lp1686
g1685
aS'looks'
p1687
aa(lp1688
g1687
aS'you'
p1689
aa(lp1690
g1689
aS'gon'
p1691
aa(lp1692
g1691
aS'be'
p1693
aa(lp1694
S'depressed'
p1695
aS'when'
p1696
aa(lp1697
g1696
aS'u'
p1698
aa(lp1699
g1698
aS'get'
p1700
aa(lp1701
g1700
aS'older'
p1702
aa(lp1703
S'i'
p1704
aS'thought'
p1705
aa(lp1706
g1705
aS'todays'
p1707
aa(lp1708
g1707
aS'google'
p1709
aa(lp1710
g1709
aS'doodle'
p1711
aa(lp1712
g1711
aS'was'
p1713
aa(lp1714
g1713
aS'an'
p1715
aa(lp1716
g1715
aS'animation'
p1717
aa(lp1718
g1717
aS'and'
p1719
aa(lp1720
g1719
aS'waited'
p1721
aa(lp1722
g1721
aS'six'
p1723
aa(lp1724
g1723
aS'minutes'
p1725
aa(lp1726
g1725
aS'for'
p1727
aa(lp1728
g1727
aS'the'
p1729
aa(lp1730
g1729
aS'muslim'
p1731
aa(lp1732
g1731
aS'kids'
p1733
aa(lp1734
g1733
aS'suicide'
p1735
aa(lp1736
g1735
aS'belt'
p1737
aa(lp1738
g1737
aS'to'
p1739
aa(lp1740
g1739
aS'explode'
p1741
aa(lp1742
S'this'
p1743
aS'is'
p1744
aa(lp1745
g1744
aS'hypocritical'
p1746
aa(lp1747
g1746
aS'of'
p1748
aa(lp1749
g1748
aS'peta'
p1750
aa(lp1751
g1750
aS'in'
p1752
aa(lp1753
g1752
aS'light'
p1754
aa(lp1755
g1754
aS'of'
p1756
aa(lp1757
g1756
aS'gt'
p1758
aa(lp1759
S'thought'
p1760
aS'that'
p1761
aa(lp1762
g1761
aS'was'
p1763
aa(lp1764
g1763
aS'pink'
p1765
aa(lp1766
S'suicide'
p1767
aS'cases'
p1768
aa(lp1769
g1768
aS'break'
p1770
aa(lp1771
g1770
aS'my'
p1772
aa(lp1773
S'super'
p1774
aS'depressed'
p1775
aa(lp1776
g1775
aS'tbh'
p1777
aa(lp1778
S'hotline'
p1779
aS'18002738255'
p1780
aa(lp1781
g1780
aS'almost'
p1782
aa(lp1783
g1782
aS'2000'
p1784
aa(lp1785
g1784
aS'people'
p1786
aa(lp1787
S'suicide'
p1788
aS'daily'
p1789
aa(lp1790
g1789
aS'retweet'
p1791
aa(lp1792
g1791
aS'this'
p1793
aa(lp1794
S'men'
p1795
aS'we'
p1796
aa(lp1797
g1796
aS'are'
p1798
aa(lp1799
g1798
aS'happy'
p1800
aa(lp1801
g1800
aS'there'
p1802
aa(lp1803
g1802
aS'is'
p1804
aa(lp1805
S'suicide'
p1806
aS'overdose'
p1807
aa(lp1808
g1807
aS'in'
p1809
aa(lp1810
g1809
aS'bathtube'
p1811
aa(lp1812
g1811
aS'cutting'
p1813
aa(lp1814
g1813
aS'wrists'
p1815
aa(lp1816
g1815
aS'toxic'
p1817
aa(lp1818
g1817
aS'plants'
p1819
aa(lp1820
g1819
aS'in'
p1821
aa(lp1822
g1821
aS'front'
p1823
aa(lp1824
g1823
aS'of'
p1825
aa(lp1826
g1825
aS'train'
p1827
aa(lp1828
g1827
aS'most'
p1829
aa(lp1830
g1829
aS'difficult'
p1831
aa(lp1832
g1831
aS'one'
p1833
aa(lp1834
S'on'
p1835
aS'teen'
p1836
aa(lp1837
g1836
aS'suicide'
p1838
aa(lp1839
g1838
aS'last'
p1840
aa(lp1841
g1840
aS'tour'
p1842
aa(lp1843
g1842
aS'this'
p1844
aa(lp1845
g1844
aS'14'
p1846
aa(lp1847
g1846
aS'yo'
p1848
aa(lp1849
g1848
aS'girl'
p1850
aa(lp1851
g1850
aS'i'
p1852
aa(lp1853
g1852
aS'asked'
p1854
aa(lp1855
g1854
aS'her'
p1856
aa(lp1857
g1856
aS'age'
p1858
aa(lp1859
g1858
aS'cuz'
p1860
aa(lp1861
g1860
aS'it'
p1862
aa(lp1863
S'so'
p1864
aS'nuts'
p1865
aa(lp1866
g1865
aS'i'
p1867
aa(lp1868
g1867
aS'swear'
p1869
aa(lp1870
g1869
aS'to'
p1871
aa(lp1872
g1871
aS'god'
p1873
aa(lp1874
g1873
aS'pointed'
p1875
aa(lp1876
g1875
aS'a'
p1877
aa(lp1878
g1877
aS'cassette'
p1879
aa(lp1880
g1879
aS'amp'
p1881
aa(lp1882
g1881
aS'said'
p1883
aa(lp1884
g1883
aS'what'
p1885
aa(lp1886
S'is'
p1887
aS'this'
p1888
aa(lp1889
S'u'
p1890
aS'cunt'
p1891
aa(lp1892
g1891
aS'why'
p1893
aa(lp1894
g1893
aS'did'
p1895
aa(lp1896
g1895
aS'u'
p1897
aa(lp1898
g1897
aS'have'
p1899
aa(lp1900
g1899
aS'to'
p1901
aa(lp1902
g1901
aS'pop'
p1903
aa(lp1904
g1903
aS'up'
p1905
aa(lp1906
g1905
aS'on'
p1907
aa(lp1908
S'my'
p1909
aS'tl'
p1910
aa(lp1911
g1910
aS'now'
p1912
aa(lp1913
S'i'
p1914
aS'wanna'
p1915
aa(lp1916
g1915
aS'die'
p1917
aa(lp1918
g1917
aS'too'
p1919
aa(lp1920
S'i'
p1921
aS'debate'
p1922
aa(lp1923
g1922
aS'suicide'
p1924
aa(lp1925
S'every'
p1926
aS'time'
p1927
aa(lp1928
g1927
aS'im'
p1929
aa(lp1930
g1929
aS'trying'
p1931
aa(lp1932
S'to'
p1933
aS'enjoy'
p1934
aa(lp1935
g1934
aS'a'
p1936
aa(lp1937
g1936
aS'song'
p1938
aa(lp1939
g1938
aS'but'
p1940
aa(lp1941
g1940
aS'the'
p1942
aa(lp1943
g1942
aS'minecraft'
p1944
aa(lp1945
g1944
aS'parody'
p1946
aa(lp1947
g1946
aS'from'
p1948
aa(lp1949
g1948
aS'2012'
p1950
aa(lp1951
g1950
aS'keeps'
p1952
aa(lp1953
g1952
aS'popping'
p1954
aa(lp1955
g1954
aS'up'
p1956
aa(lp1957
g1956
aS'in'
p1958
aa(lp1959
S'my'
p1960
aS'head'
p1961
aa(lp1962
S'he'
p1963
aS'didnt'
p1964
aa(lp1965
g1964
aS'even'
p1966
aa(lp1967
g1966
aS'bother'
p1968
aa(lp1969
g1968
aS'to'
p1970
aa(lp1971
g1970
aS'apologize'
p1972
aa(lp1973
g1972
aS'hes'
p1974
aa(lp1975
g1974
aS'blaming'
p1976
aa(lp1977
g1976
aS'me'
p1978
aa(lp1979
g1978
aS'for'
p1980
aa(lp1981
g1980
aS'being'
p1982
aa(lp1983
S'depressed'
p1984
aS'thank'
p1985
aa(lp1986
g1985
aS'u'
p1987
aa(lp1988
g1987
aS'so'
p1989
aa(lp1990
g1989
aS'much'
p1991
aa(lp1992
S'suicide'
p1993
aS'sheep'
p1994
aa(lp1995
S'augh'
p1996
aS'i'
p1997
aa(lp1998
g1997
aS'am'
p1999
aa(lp2000
g1999
aS'in'
p2001
aa(lp2002
S'the'
p2003
aS'worst'
p2004
aa(lp2005
g2004
aS'mood'
p2006
aa(lp2007
g2006
aS'time'
p2008
aa(lp2009
g2008
aS'to'
p2010
aa(lp2011
g2010
aS'catch'
p2012
aa(lp2013
g2012
aS'up'
p2014
aa(lp2015
S'on'
p2016
aS'these8'
p2017
aa(lp2018
g2017
aS'issues'
p2019
aa(lp2020
g2019
aS'of'
p2021
aa(lp2022
g2021
aS'suicide'
p2023
aa(lp2024
S'social'
p2025
aS'media'
p2026
aa(lp2027
g2026
aS'makes'
p2028
aa(lp2029
S'me'
p2030
aS'depressed'
p2031
aa(lp2032
S'i'
p2033
aS'got'
p2034
aa(lp2035
g2034
aS'penalized'
p2036
aa(lp2037
g2036
aS'in'
p2038
aa(lp2039
g2038
aS'rehab'
p2040
aa(lp2041
g2040
aS'cuz'
p2042
aa(lp2043
g2042
aS'a'
p2044
aa(lp2045
g2044
aS'bitch'
p2046
aa(lp2047
g2046
aS'was'
p2048
aa(lp2049
g2048
aS'bout'
p2050
aa(lp2051
g2050
aS'to'
p2052
aa(lp2053
S'suicide'
p2054
aS'and'
p2055
aa(lp2056
S'i'
p2057
aS'said'
p2058
aa(lp2059
g2058
aS'oh'
p2060
aa(lp2061
g2060
aS'its'
p2062
aa(lp2063
g2062
aS'fuckin'
p2064
aa(lp2065
g2064
aS'lit'
p2066
aa(lp2067
S'lmao'
p2068
aS'who'
p2069
aa(lp2070
g2069
aS'cares'
p2071
aa(lp2072
g2071
aS'well'
p2073
aa(lp2074
g2073
aS'besides'
p2075
aa(lp2076
g2075
aS'depressed'
p2077
aa(lp2078
g2077
aS'democrats'
p2079
aa(lp2080
g2079
aS'over'
p2081
aa(lp2082
g2081
aS'losing'
p2083
aa(lp2084
g2083
aS'an'
p2085
aa(lp2086
g2085
aS'election'
p2087
aa(lp2088
S'out'
p2089
aS'here'
p2090
aa(lp2091
g2090
aS'looking'
p2092
aa(lp2093
g2092
aS'like'
p2094
aa(lp2095
g2094
aS'ellen'
p2096
aa(lp2097
S'tw'
p2098
aS'suicide'
p2099
aa(lp2100
S'and'
p2101
aS'death'
p2102
aa(lp2103
g2102
aS'mentions'
p2104
aa(lp2105
S'welcome'
p2106
aS'2'
p2107
aa(lp2108
g2107
aS'hampm'
p2109
aa(lp2110
S'me'
p2111
aS'ive'
p2112
aa(lp2113
g2112
aS'missed'
p2114
aa(lp2115
g2114
aS'too'
p2116
aa(lp2117
S'much'
p2118
aS'school'
p2119
aa(lp2120
g2119
aS'depressed'
p2121
aa(lp2122
g2121
aS'me'
p2123
aa(lp2124
g2123
aS'skip'
p2125
aa(lp2126
g2125
aS'4'
p2127
aa(lp2128
g2127
aS'more'
p2129
aa(lp2130
g2129
aS'days'
p2131
aa(lp2132
S'you'
p2133
aS'ever'
p2134
aa(lp2135
g2134
aS'have'
p2136
aa(lp2137
g2136
aS'a'
p2138
aa(lp2139
g2138
aS'moment'
p2140
aa(lp2141
g2140
aS'where'
p2142
aa(lp2143
g2142
aS'youre'
p2144
aa(lp2145
g2144
aS'super'
p2146
aa(lp2147
S'depressed'
p2148
aS'with'
p2149
aa(lp2150
S'a'
p2151
aS'burn'
p2152
aa(lp2153
g2152
aS'on'
p2154
aa(lp2155
g2154
aS'your'
p2156
aa(lp2157
g2156
aS'foot'
p2158
aa(lp2159
g2158
aS'and'
p2160
aa(lp2161
g2160
aS'watch'
p2162
aa(lp2163
g2162
aS'minx'
p2164
aa(lp2165
g2164
aS'play'
p2166
aa(lp2167
g2166
aS'night'
p2168
aa(lp2169
g2168
aS'in'
p2170
aa(lp2171
S'the'
p2172
aS'woods'
p2173
aa(lp2174
S'i'
p2175
aS'seem'
p2176
aa(lp2177
g2176
aS'depressed'
p2178
aa(lp2179
g2178
aS'always'
p2180
aa(lp2181
g2180
aS'being'
p2182
aa(lp2183
g2182
aS'bothered'
p2184
aa(lp2185
g2184
aS'never'
p2186
aa(lp2187
g2186
aS'less'
p2188
aa(lp2189
S'female'
p2190
aS'suicide'
p2191
aa(lp2192
g2191
aS'bombers'
p2193
aa(lp2194
g2193
aS'need'
p2195
aa(lp2196
g2195
aS'four'
p2197
aa(lp2198
g2197
aS'male'
p2199
aa(lp2200
g2199
aS'witnesses'
p2201
aa(lp2202
g2201
aS'to'
p2203
aa(lp2204
g2203
aS'prove'
p2205
aa(lp2206
g2205
aS'martyrdom'
p2207
aa(lp2208
S'dont'
p2209
aS'get'
p2210
aa(lp2211
g2210
aS'mad'
p2212
aa(lp2213
g2212
aS'if'
p2214
aa(lp2215
g2214
aS'i'
p2216
aa(lp2217
S'dont'
p2218
aS'watch'
p2219
aa(lp2220
g2219
aS'snapchats'
p2221
aa(lp2222
g2221
aS'all'
p2223
aa(lp2224
g2223
aS'week'
p2225
aa(lp2226
g2225
aS'im'
p2227
aa(lp2228
S'not'
p2229
aS'tryna'
p2230
aa(lp2231
g2230
aS'be'
p2232
aa(lp2233
S'depressed'
p2234
aS'that'
p2235
aa(lp2236
S'not'
p2237
aS'in'
p2238
aa(lp2239
g2238
aS'florida'
p2240
aa(lp2241
S'im'
p2242
aS'so'
p2243
aa(lp2244
S'and'
p2245
aS'anxious'
p2246
aa(lp2247
g2246
aS'i'
p2248
aa(lp2249
g2248
aS'cant'
p2250
aa(lp2251
g2250
aS'wait'
p2252
aa(lp2253
g2252
aS'to'
p2254
aa(lp2255
g2254
aS'go'
p2256
aa(lp2257
g2256
aS'to'
p2258
aa(lp2259
g2258
aS'the'
p2260
aa(lp2261
g2260
aS'gym'
p2262
aa(lp2263
g2262
aS'after'
p2264
aa(lp2265
g2264
aS'work'
p2266
aa(lp2267
g2266
aS'and'
p2268
aa(lp2269
g2268
aS'just'
p2270
aa(lp2271
S'get'
p2272
aS'my'
p2273
aa(lp2274
g2273
aS'mind'
p2275
aa(lp2276
g2275
aS'off'
p2277
aa(lp2278
g2277
aS'of'
p2279
aa(lp2280
g2279
aS'all'
p2281
aa(lp2282
g2281
aS'this'
p2283
aa(lp2284
g2283
aS'sadness'
p2285
aa(lp2286
S'not'
p2287
aS'the'
p2288
aa(lp2289
S'answer'
p2290
aS'someone'
p2291
aa(lp2292
g2291
aS'loves'
p2293
aa(lp2294
g2293
aS'you'
p2295
aa(lp2296
S'stopping'
p2297
aS'vet'
p2298
aa(lp2299
g2298
aS'suicide'
p2300
aa(lp2301
g2300
aS'in'
p2302
aa(lp2303
g2302
aS'its'
p2304
aa(lp2305
g2304
aS'tracks'
p2306
aa(lp2307
g2306
aS'with'
p2308
aa(lp2309
S'a'
p2310
aS'therapy'
p2311
aa(lp2312
g2311
aS'dog'
p2313
aa(lp2314
g2313
aS'help'
p2315
aa(lp2316
g2315
aS'us'
p2317
aa(lp2318
g2317
aS'help'
p2319
aa(lp2320
g2319
aS'them'
p2321
aa(lp2322
g2321
aS'please'
p2323
aa(lp2324
S'dont'
p2325
aS'even'
p2326
aa(lp2327
g2326
aS'know'
p2328
aa(lp2329
g2328
aS'gosh'
p2330
aa(lp2331
g2330
aS'its'
p2332
aa(lp2333
g2332
aS'making'
p2334
aa(lp2335
g2334
aS'me'
p2336
aa(lp2337
g2336
aS'so'
p2338
aa(lp2339
S'depressed'
p2340
aS'just'
p2341
aa(lp2342
g2341
aS'knowing'
p2343
aa(lp2344
g2343
aS'i'
p2345
aa(lp2346
g2345
aS'wont'
p2347
aa(lp2348
g2347
aS'stay'
p2349
aa(lp2350
g2349
aS'up'
p2351
aa(lp2352
g2351
aS'friday'
p2353
aa(lp2354
g2353
aS'night'
p2355
aa(lp2356
g2355
aS'to'
p2357
aa(lp2358
g2357
aS'wait'
p2359
aa(lp2360
g2359
aS'for'
p2361
aa(lp2362
g2361
aS'it'
p2363
aa(lp2364
g2363
aS'anymore'
p2365
aa(lp2366
S'so'
p2367
aS'these'
p2368
aa(lp2369
g2368
aS'depresseddyingpovertystricken'
p2370
aa(lp2371
g2370
aS'whites'
p2372
aa(lp2373
g2372
aS'should'
p2374
aa(lp2375
g2374
aS'ignore'
p2376
aa(lp2377
g2376
aS'their'
p2378
aa(lp2379
g2378
aS'own'
p2380
aa(lp2381
g2380
aS'plight'
p2382
aa(lp2383
g2382
aS'bc'
p2384
aa(lp2385
g2384
aS'others'
p2386
aa(lp2387
g2386
aS'are'
p2388
aa(lp2389
g2388
aS'worse'
p2390
aa(lp2391
S'ive'
p2392
aS'lost'
p2393
aa(lp2394
g2393
aS'friends'
p2395
aa(lp2396
g2395
aS'over'
p2397
aa(lp2398
g2397
aS'suicide'
p2399
aa(lp2400
S'and'
p2401
aS'drug'
p2402
aa(lp2403
g2402
aS'overdose'
p2404
aa(lp2405
g2404
aS'but'
p2406
aa(lp2407
g2406
aS'never'
p2408
aa(lp2409
g2408
aS'cancer'
p2410
aa(lp2411
g2410
aS'until'
p2412
aa(lp2413
g2412
aS'now'
p2414
aa(lp2415
g2414
aS'and'
p2416
aa(lp2417
g2416
aS'idk'
p2418
aa(lp2419
g2418
aS'what'
p2420
aa(lp2421
g2420
aS'hurts'
p2422
aa(lp2423
g2422
aS'worse'
p2424
aa(lp2425
g2424
aS'man'
p2426
aa(lp2427
S'personally'
p2428
aS'i'
p2429
aa(lp2430
g2429
aS'think'
p2431
aa(lp2432
g2431
aS'they'
p2433
aa(lp2434
g2433
aS'shouldnt'
p2435
aa(lp2436
g2435
aS'unless'
p2437
aa(lp2438
g2437
aS'they'
p2439
aa(lp2440
g2439
aS'have'
p2441
aa(lp2442
g2441
aS'have'
p2443
aa(lp2444
g2443
aS'an'
p2445
aa(lp2446
g2445
aS'absolute'
p2447
aa(lp2448
g2447
aS'reason'
p2449
aa(lp2450
g2449
aS'to'
p2451
aa(lp2452
g2451
aS'like'
p2453
aa(lp2454
g2453
aS'murder'
p2455
aa(lp2456
g2455
aS'suicide'
p2457
aa(lp2458
S'kate'
p2459
aS'walsh'
p2460
aa(lp2461
g2460
aS'looks'
p2462
aa(lp2463
g2462
aS'exhausted'
p2464
aa(lp2465
g2464
aS'and'
p2466
aa(lp2467
g2466
aS'depressed'
p2468
aa(lp2469
S'af'
p2470
aS'in'
p2471
aa(lp2472
g2471
aS'every'
p2473
aa(lp2474
g2473
aS'scene'
p2475
aa(lp2476
g2475
aS'shes'
p2477
aa(lp2478
g2477
aS'in'
p2479
aa(lp2480
g2479
aS'shes'
p2481
aa(lp2482
g2481
aS'really'
p2483
aa(lp2484
g2483
aS'going'
p2485
aa(lp2486
g2485
aS'places'
p2487
aa(lp2488
g2487
aS'in'
p2489
aa(lp2490
g2489
aS'this'
p2491
aa(lp2492
g2491
aS'show'
p2493
aa(lp2494
S'first'
p2495
aS'suicide'
p2496
aa(lp2497
S'attempt'
p2498
aS'of'
p2499
aa(lp2500
g2499
aS'2017'
p2501
aa(lp2502
S'mxpx'
p2503
ag241
aa(lp2504
g241
aS'young'
p2505
aa(lp2506
g2505
aS'and'
p2507
aa(lp2508
S'my'
p2509
aS'metric'
p2510
aa(lp2511
g2510
aS'for'
p2512
aa(lp2513
g2512
aS'how'
p2514
aa(lp2515
g2514
aS'depressed'
p2516
aa(lp2517
S'am'
p2518
aS'is'
p2519
aa(lp2520
g2519
aS'how'
p2521
aa(lp2522
g2521
aS'many'
p2523
aa(lp2524
g2523
aS'days'
p2525
aa(lp2526
g2525
aS'ive'
p2527
aa(lp2528
g2527
aS'used'
p2529
aa(lp2530
g2529
aS'dry'
p2531
aa(lp2532
g2531
aS'shampoo'
p2533
aa(lp2534
g2533
aS'and'
p2535
aa(lp2536
g2535
aS'how'
p2537
aa(lp2538
S'many'
p2539
aS'coffees'
p2540
aa(lp2541
g2540
aS'ive'
p2542
aa(lp2543
g2542
aS'drank'
p2544
aa(lp2545
S'love'
p2546
aS'this'
p2547
aa(lp2548
S'show'
p2549
aS'but'
p2550
aa(lp2551
g2550
aS'watching'
p2552
aa(lp2553
g2552
aS'it'
p2554
aa(lp2555
S'me'
p2556
aS'feel'
p2557
aa(lp2558
S'depressed'
p2559
aS'so'
p2560
aa(lp2561
g2560
aS'i'
p2562
aa(lp2563
g2562
aS'just'
p2564
aa(lp2565
g2564
aS'have'
p2566
aa(lp2567
S'my'
p2568
aS'bro'
p2569
aa(lp2570
g2569
aS'tell'
p2571
aa(lp2572
g2571
aS'me'
p2573
aa(lp2574
g2573
aS'the'
p2575
aa(lp2576
g2575
aS'story'
p2577
aa(lp2578
S'be'
p2579
aS'dramatic'
p2580
aa(lp2581
g2580
aS'but'
p2582
aa(lp2583
g2582
aS'henry'
p2584
aa(lp2585
g2584
aS'literally'
p2586
aa(lp2587
g2586
aS'looked'
p2588
aa(lp2589
g2588
aS'like'
p2590
aa(lp2591
S'a'
p2592
aS'greek'
p2593
aa(lp2594
g2593
aS'god'
p2595
aa(lp2596
g2595
aS'at'
p2597
aa(lp2598
S'squad'
p2599
aS'premiere'
p2600
aa(lp2601
S'suicide'
p2602
aS'aint'
p2603
aa(lp2604
g2603
aS'no'
p2605
aa(lp2606
S'joke'
p2607
ag241
aa(lp2608
g241
aS'that'
p2609
aa(lp2610
g2609
aS'sorta'
p2611
aa(lp2612
g2611
aS'of'
p2613
aa(lp2614
g2613
aS'depression'
p2615
aa(lp2616
g2615
aS'nobody'
p2617
aa(lp2618
g2617
aS'should'
p2619
aa(lp2620
g2619
aS'go'
p2621
aa(lp2622
g2621
aS'through'
p2623
aa(lp2624
S'depressed'
p2625
aS'about'
p2626
aa(lp2627
g2626
aS'you'
p2628
aa(lp2629
g2628
aS'leaving'
p2630
aa(lp2631
g2630
aS'skinsunderstandbut'
p2632
aa(lp2633
g2632
aS'still'
p2634
aa(lp2635
S'i'
p2636
aS'lost'
p2637
aa(lp2638
g2637
aS'a'
p2639
aa(lp2640
g2639
aS'really'
p2641
aa(lp2642
g2641
aS'good'
p2643
aa(lp2644
g2643
aS'buddy'
p2645
aa(lp2646
g2645
aS'a'
p2647
aa(lp2648
g2647
aS'few'
p2649
aa(lp2650
g2649
aS'weeks'
p2651
aa(lp2652
g2651
aS'ago'
p2653
aa(lp2654
g2653
aS'suicide'
p2655
aa(lp2656
S'and'
p2657
aS'it'
p2658
aa(lp2659
g2658
aS'took'
p2660
aa(lp2661
g2660
aS'everyone'
p2662
aa(lp2663
g2662
aS'by'
p2664
aa(lp2665
g2664
aS'complete'
p2666
aa(lp2667
g2666
aS'surprise'
p2668
aa(lp2669
S'near'
p2670
aS'death'
p2671
aa(lp2672
g2671
aS'9'
p2673
aa(lp2674
g2673
aS'original'
p2675
aa(lp2676
g2675
aS'songs'
p2677
aa(lp2678
g2677
aS'2'
p2679
aa(lp2680
g2679
aS'covers'
p2681
aa(lp2682
g2681
aS'the'
p2683
aa(lp2684
g2683
aS'album'
p2685
aa(lp2686
g2685
aS'ive'
p2687
aa(lp2688
g2687
aS'wanted'
p2689
aa(lp2690
g2689
aS'to'
p2691
aa(lp2692
g2691
aS'make'
p2693
aa(lp2694
g2693
aS'since'
p2695
aa(lp2696
g2695
aS'i'
p2697
aa(lp2698
S'was'
p2699
aS'13'
p2700
aa(lp2701
g2700
aS'about'
p2702
aa(lp2703
g2702
aS'love'
p2704
aa(lp2705
g2704
aS'sex'
p2706
aa(lp2707
g2706
aS'hate'
p2708
aa(lp2709
g2708
aS'suicide'
p2710
aa(lp2711
g2710
aS'lets'
p2712
aa(lp2713
g2712
aS'fucking'
p2714
aa(lp2715
g2714
aS'do'
p2716
aa(lp2717
g2716
aS'this'
p2718
aa(lp2719
S'squad'
p2720
aS'dance'
p2721
aa(lp2722
S'you'
p2723
aS'depressed'
p2724
aa(lp2725
S'and'
p2726
aS'hate'
p2727
aa(lp2728
g2727
aS'your'
p2729
aa(lp2730
g2729
aS'life'
p2731
aa(lp2732
g2731
aS'but'
p2733
aa(lp2734
g2733
aS'kodaks'
p2735
aa(lp2736
g2735
aS'new'
p2737
aa(lp2738
g2737
aS'album'
p2739
aa(lp2740
g2739
aS'is'
p2741
aa(lp2742
g2741
aS'a'
p2743
aa(lp2744
g2743
aS'classic'
p2745
aa(lp2746
S'clinical'
p2747
aS'psychiatry'
p2748
aa(lp2749
g2748
aS'news'
p2750
aa(lp2751
S'zero'
p2752
aS'suicide'
p2753
aa(lp2754
g2753
aS'thats'
p2755
aa(lp2756
g2755
aS'good'
p2757
aa(lp2758
S'im'
p2759
aS'out'
p2760
aa(lp2761
S'here'
p2762
aS'loving'
p2763
aa(lp2764
g2763
aS'life'
p2765
aa(lp2766
g2765
aS'fam'
p2767
aa(lp2768
g2767
aS'april'
p2769
aa(lp2770
S'fools'
p2771
aS'lol'
p2772
aa(lp2773
g2772
aS'im'
p2774
aa(lp2775
S'depressed'
p2776
aS'as'
p2777
aa(lp2778
g2777
aS'fuck'
p2779
aa(lp2780
S'sort'
p2781
aS'of'
p2782
aa(lp2783
g2782
aS'weird'
p2784
aa(lp2785
g2784
aS'how'
p2786
aa(lp2787
g2786
aS'i'
p2788
aa(lp2789
S'know'
p2790
aS'wut'
p2791
aa(lp2792
g2791
aS'love'
p2793
aa(lp2794
g2793
aS'is'
p2795
aa(lp2796
g2795
aS'after'
p2797
aa(lp2798
g2797
aS'teaching'
p2799
aa(lp2800
g2799
aS'my'
p2801
aa(lp2802
g2801
aS'best'
p2803
aa(lp2804
g2803
aS'friend'
p2805
aa(lp2806
g2805
aS'who'
p2807
aa(lp2808
g2807
aS'lost'
p2809
aa(lp2810
g2809
aS'her'
p2811
aa(lp2812
g2811
aS'dad'
p2813
aa(lp2814
g2813
aS'to'
p2815
aa(lp2816
S'suicide'
p2817
aS'what'
p2818
aa(lp2819
g2818
aS'love'
p2820
aa(lp2821
S'can'
p2822
aS'we'
p2823
aa(lp2824
g2823
aS'have'
p2825
aa(lp2826
g2825
aS'fewer'
p2827
aa(lp2828
g2827
aS'ya'
p2829
aa(lp2830
g2829
aS'books'
p2831
aa(lp2832
g2831
aS'about'
p2833
aa(lp2834
S'and'
p2835
aS'more'
p2836
aa(lp2837
g2836
aS'books'
p2838
aa(lp2839
S'about'
p2840
aS'learning'
p2841
aa(lp2842
g2841
aS'to'
p2843
aa(lp2844
g2843
aS'cope'
p2845
aa(lp2846
g2845
aS'with'
p2847
aa(lp2848
g2847
aS'depression'
p2849
aa(lp2850
g2849
aS'in'
p2851
aa(lp2852
g2851
aS'a'
p2853
aa(lp2854
g2853
aS'healthy'
p2855
aa(lp2856
g2855
aS'way'
p2857
aa(lp2858
g2857
aS'thanks'
p2859
aa(lp2860
S'feeling'
p2861
aS'depressed'
p2862
aa(lp2863
g2862
aS'today'
p2864
aa(lp2865
g2864
aS'so'
p2866
aa(lp2867
g2866
aS'ill'
p2868
aa(lp2869
g2868
aS'be'
p2870
aa(lp2871
g2870
aS'in'
p2872
aa(lp2873
g2872
aS'dms'
p2874
aa(lp2875
S'bruh'
p2876
aS'hed'
p2877
aa(lp2878
g2877
aS'be'
p2879
aa(lp2880
g2879
aS'the'
p2881
aa(lp2882
S'only'
p2883
aS'suicide'
p2884
aa(lp2885
g2884
aS'bomber'
p2886
aa(lp2887
g2886
aS'to'
p2888
aa(lp2889
g2888
aS'survive'
p2890
aa(lp2891
g2890
aS'the'
p2892
aa(lp2893
g2892
aS'explosion'
p2894
aa(lp2895
S'congratulations'
p2896
aS'on'
p2897
aa(lp2898
g2897
aS'being'
p2899
aa(lp2900
S'about'
p2901
aS'old'
p2902
aa(lp2903
g2902
aS'age'
p2904
aa(lp2905
S'feelin'
p2906
aS'super'
p2907
aa(lp2908
g2907
aS'extra'
p2909
aa(lp2910
g2909
aS'depressed'
p2911
aa(lp2912
g2911
aS'rn'
p2913
aa(lp2914
S'i'
p2915
aS'had'
p2916
aa(lp2917
g2916
aS'a'
p2918
aa(lp2919
g2918
aS'tumor'
p2920
aa(lp2921
g2920
aS'can'
p2922
aa(lp2923
g2922
aS'i'
p2924
aa(lp2925
g2924
aS'make'
p2926
aa(lp2927
g2926
aS'a'
p2928
aa(lp2929
g2928
aS'joke'
p2930
aa(lp2931
g2930
aS'about'
p2932
aa(lp2933
g2932
aS'tumors'
p2934
aa(lp2935
g2934
aS'i'
p2936
aa(lp2937
S'think'
p2938
aS'i'
p2939
aa(lp2940
g2939
aS'should'
p2941
aa(lp2942
g2941
aS'make'
p2943
aa(lp2944
g2943
aS'one'
p2945
aa(lp2946
S'scrolling'
p2947
aS'tumblr'
p2948
aa(lp2949
g2948
aS'in'
p2950
aa(lp2951
g2950
aS'class'
p2952
aa(lp2953
g2952
aS'is'
p2954
aa(lp2955
S'seriously'
p2956
aS'depressed'
p2957
aa(lp2958
S'im'
p2959
aS'gonna'
p2960
aa(lp2961
g2960
aS'miss'
p2962
aa(lp2963
g2962
aS'call'
p2964
aa(lp2965
g2964
aS'tomorrow'
p2966
aa(lp2967
g2966
aS'night'
p2968
aa(lp2969
g2968
aS'good'
p2970
aa(lp2971
g2970
aS'luck'
p2972
aa(lp2973
g2972
aS'jr'
p2974
aa(lp2975
S'seriously'
p2976
aS'suicide'
p2977
aa(lp2978
g2977
aS'hyperbole'
p2979
aa(lp2980
S'so'
p2981
aS'funny'
p2982
aa(lp2983
S'whats'
p2984
aS'your'
p2985
aa(lp2986
g2985
aS'type'
p2987
aa(lp2988
g2987
aS'me'
p2989
aa(lp2990
g2989
aS'cute'
p2991
aa(lp2992
g2991
aS'aggressive'
p2993
aa(lp2994
g2993
aS'antisocial'
p2995
aa(lp2996
g2995
aS'depressed'
p2997
aa(lp2998
S'and'
p2999
aS'over'
p3000
aa(lp3001
g3000
aS'medicated'
p3002
aa(lp3003
g3002
aS'with'
p3004
aa(lp3005
S'no'
p3006
aS'real'
p3007
aa(lp3008
g3007
aS'future'
p3009
aa(lp3010
g3009
aS'plans'
p3011
aa(lp3012
S'an'
p3013
aS'email'
p3014
aa(lp3015
g3014
aS'sent'
p3016
aa(lp3017
g3016
aS'by'
p3018
aa(lp3019
g3018
aS'a'
p3020
aa(lp3021
g3020
aS'professor'
p3022
aa(lp3023
g3022
aS'at'
p3024
aa(lp3025
S'school'
p3026
aS'regarding'
p3027
aa(lp3028
g3027
aS'the'
p3029
aa(lp3030
g3029
aS'recent'
p3031
aa(lp3032
g3031
aS'loss'
p3033
aa(lp3034
g3033
aS'of'
p3035
aa(lp3036
g3035
aS'one'
p3037
aa(lp3038
S'of'
p3039
aS'his'
p3040
aa(lp3041
g3040
aS'students'
p3042
aa(lp3043
g3042
aS'to'
p3044
aa(lp3045
S'are'
p3046
aS'e'
p3047
aa(lp3048
g3047
aS'depressed'
p3049
aa(lp3050
S'political'
p3051
aS'career'
p3052
aa(lp3053
g3052
aS'suicide'
p3054
aa(lp3055
S'i'
p3056
aS'get'
p3057
aa(lp3058
g3057
aS'really'
p3059
aa(lp3060
S'when'
p3061
aS'a'
p3062
aa(lp3063
g3062
aS'new'
p3064
aa(lp3065
g3064
aS'relationship'
p3066
aa(lp3067
g3066
aS'starts'
p3068
aa(lp3069
g3068
aS'with'
p3070
aa(lp3071
g3070
aS'anyone'
p3072
aa(lp3073
g3072
aS'i'
p3074
aa(lp3075
S'get'
p3076
aS'happy'
p3077
aa(lp3078
g3077
aS'when'
p3079
aa(lp3080
g3079
aS'they'
p3081
aa(lp3082
g3081
aS'break'
p3083
aa(lp3084
g3083
aS'up'
p3085
aa(lp3086
g3085
aS'right'
p3087
aa(lp3088
S'now'
p3089
aS'im'
p3090
aa(lp3091
g3090
aS'suicidal'
p3092
aa(lp3093
S'depressed'
p3094
aS'people'
p3095
aa(lp3096
g3095
aS'following'
p3097
aa(lp3098
g3097
aS'depression'
p3099
aa(lp3100
g3099
aS'accounts'
p3101
aa(lp3102
g3101
aS'youre'
p3103
aa(lp3104
g3103
aS'just'
p3105
aa(lp3106
g3105
aS'fueling'
p3107
aa(lp3108
g3107
aS'your'
p3109
aa(lp3110
g3109
aS'depression'
p3111
aa(lp3112
g3111
aS'wtf'
p3113
aa(lp3114
g3113
aS'u'
p3115
aa(lp3116
g3115
aS'doing'
p3117
aa(lp3118
S'eyes'
p3119
aS'annaleigh'
p3120
aa(lp3121
g3120
aS'suicide'
p3122
aa(lp3123
g3122
aS'girl'
p3124
aa(lp3125
S'50'
p3126
aS'horny'
p3127
aa(lp3128
g3127
aS'50'
p3129
aa(lp3130
g3129
aS'depressed'
p3131
aa(lp3132
S'i'
p3133
aS'need'
p3134
aa(lp3135
S'to'
p3136
aS'stop'
p3137
aa(lp3138
g3137
aS'im'
p3139
aa(lp3140
g3139
aS'starting'
p3141
aa(lp3142
g3141
aS'to'
p3143
aa(lp3144
S'get'
p3145
aS'depressed'
p3146
aa(lp3147
S'jazz'
p3148
aS'set'
p3149
aa(lp3150
g3149
aS'me'
p3151
aa(lp3152
g3151
aS'up'
p3153
aa(lp3154
g3153
aS'to'
p3155
aa(lp3156
S'be'
p3157
aS'blocked'
p3158
aa(lp3159
g3158
aS'depressed'
p3160
aa(lp3161
S'about'
p3162
aS'it'
p3163
aa(lp3164
g3163
aS'and'
p3165
aa(lp3166
S'feel'
p3167
aS'bad'
p3168
aa(lp3169
S'the'
p3170
aS'breaking'
p3171
aa(lp3172
g3171
aS'point'
p3173
aa(lp3174
g3173
aS'that'
p3175
aa(lp3176
g3175
aS'drives'
p3177
aa(lp3178
g3177
aS'me'
p3179
aa(lp3180
g3179
aS'to'
p3181
aa(lp3182
S'she'
p3183
aS'still'
p3184
aa(lp3185
g3184
aS'has'
p3186
aa(lp3187
g3186
aS'nightmares'
p3188
aa(lp3189
g3188
aS'about'
p3190
aa(lp3191
S'she'
p3192
aS'is'
p3193
aa(lp3194
g3193
aS'very'
p3195
aa(lp3196
g3195
aS'haunted'
p3197
aa(lp3198
g3197
aS'and'
p3199
aa(lp3200
S'i'
p3201
aS'know'
p3202
aa(lp3203
g3202
aS'personally'
p3204
aa(lp3205
g3204
aS'quite'
p3206
aa(lp3207
g3206
aS'many'
p3208
aa(lp3209
g3208
aS'people'
p3210
aa(lp3211
S'who'
p3212
aS'committed'
p3213
aa(lp3214
g3213
aS'suicide'
p3215
aa(lp3216
S'in'
p3217
aS'holland'
p3218
aa(lp3219
g3218
aS'all'
p3220
aa(lp3221
g3220
aS'very'
p3222
aa(lp3223
g3222
aS'kind'
p3224
aa(lp3225
g3224
aS'soft'
p3226
aa(lp3227
g3226
aS'and'
p3228
aa(lp3229
g3228
aS'special'
p3230
aa(lp3231
g3230
aS'i'
p3232
aa(lp3233
g3232
aS'never'
p3234
aa(lp3235
g3234
aS'heard'
p3236
aa(lp3237
g3236
aS'the'
p3238
aa(lp3239
g3238
aS'king'
p3240
aa(lp3241
g3240
aS'about'
p3242
aa(lp3243
g3242
aS'this'
p3244
aa(lp3245
S'is'
p3246
aS'painless'
p3247
aa(lp3248
g3247
aS'is'
p3249
aa(lp3250
S'a'
p3251
aS'good'
p3252
aa(lp3253
g3252
aS'song'
p3254
aa(lp3255
S'guys'
p3256
aS'im'
p3257
aa(lp3258
S'and'
p3259
aS'this'
p3260
aa(lp3261
g3260
aS'loneliness'
p3262
aa(lp3263
g3262
aS'its'
p3264
aa(lp3265
g3264
aS'unbearable'
p3266
aa(lp3267
g3266
aS'i'
p3268
aa(lp3269
S'like'
p3270
aS'im'
p3271
aa(lp3272
g3271
aS'drowning'
p3273
aa(lp3274
S'time'
p3275
aS'i'
p3276
aa(lp3277
g3276
aS'try'
p3278
aa(lp3279
g3278
aS'to'
p3280
aa(lp3281
S'this'
p3282
aS'ia'
p3283
aa(lp3284
g3283
aS'i'
p3285
aa(lp3286
S'and'
p3287
aS'feel'
p3288
aa(lp3289
S'like'
p3290
aS'giving'
p3291
aa(lp3292
g3291
aS'up'
p3293
aa(lp3294
S'suicide'
p3295
aS'has'
p3296
aa(lp3297
g3296
aS'been'
p3298
aa(lp3299
g3298
aS'cancelled'
p3300
aa(lp3301
S'stop'
p3302
aS'wasting'
p3303
aa(lp3304
g3303
aS'your'
p3305
aa(lp3306
g3305
aS'young'
p3307
aa(lp3308
g3307
aS'years'
p3309
aa(lp3310
g3309
aS'stressing'
p3311
aa(lp3312
g3311
aS'over'
p3313
aa(lp3314
g3313
aS'one'
p3315
aa(lp3316
g3315
aS'person'
p3317
aa(lp3318
g3317
aS'who'
p3319
aa(lp3320
g3319
aS'makes'
p3321
aa(lp3322
g3321
aS'you'
p3323
aa(lp3324
S'amp'
p3325
aS'stressed'
p3326
aa(lp3327
g3326
aS'amp'
p3328
aa(lp3329
g3328
aS'once'
p3330
aa(lp3331
g3330
aS'in'
p3332
aa(lp3333
g3332
aS'awhile'
p3334
aa(lp3335
g3334
aS'happy'
p3336
aa(lp3337
S'depressed'
p3338
aS'cuz'
p3339
aa(lp3340
g3339
aS'i'
p3341
aa(lp3342
g3341
aS'have'
p3343
aa(lp3344
g3343
aS'too'
p3345
aa(lp3346
S'much'
p3347
aS'love'
p3348
aa(lp3349
g3348
aS'to'
p3350
aa(lp3351
g3350
aS'give'
p3352
aa(lp3353
g3352
aS'and'
p3354
aa(lp3355
g3354
aS'nobody'
p3356
aa(lp3357
g3356
aS'to'
p3358
aa(lp3359
g3358
aS'receive'
p3360
aa(lp3361
g3360
aS'it'
p3362
aa(lp3363
S'halal'
p3364
aS'suicide'
p3365
aa(lp3366
g3365
aS'there'
p3367
aa(lp3368
S'no'
p3369
aS'such'
p3370
aa(lp3371
g3370
aS'thing'
p3372
aa(lp3373
g3372
aS'in'
p3374
aa(lp3375
g3374
aS'islam'
p3376
aa(lp3377
g3376
aS'you'
p3378
aa(lp3379
g3378
aS'kill'
p3380
aa(lp3381
g3380
aS'yourself'
p3382
aa(lp3383
g3382
aS'you'
p3384
aa(lp3385
g3384
aS'go'
p3386
aa(lp3387
g3386
aS'straight'
p3388
aa(lp3389
g3388
aS'to'
p3390
aa(lp3391
g3390
aS'hell'
p3392
aa(lp3393
S'life'
p3394
aS'is'
p3395
aa(lp3396
S'too'
p3397
aS'short'
p3398
aa(lp3399
g3398
aS'to'
p3400
aa(lp3401
S'suicide'
p3402
aS'be'
p3403
aa(lp3404
g3403
aS'patient'
p3405
aa(lp3406
g3405
aS'you'
p3407
aa(lp3408
g3407
aS'will'
p3409
aa(lp3410
g3409
aS'still'
p3411
aa(lp3412
g3411
aS'die'
p3413
aa(lp3414
S'i'
p3415
aS'havent'
p3416
aa(lp3417
g3416
aS'looked'
p3418
aa(lp3419
g3418
aS'for'
p3420
aa(lp3421
g3420
aS'a'
p3422
aa(lp3423
g3422
aS'prom'
p3424
aa(lp3425
g3424
aS'dress'
p3426
aa(lp3427
g3426
aS'bc'
p3428
aa(lp3429
g3428
aS'im'
p3430
aa(lp3431
S'800000'
p3432
aS'people'
p3433
aa(lp3434
S'suicide'
p3435
aS'worldwide'
p3436
aa(lp3437
g3436
aS'annuallywho'
p3438
aa(lp3439
S'we'
p3440
aS'can'
p3441
aa(lp3442
g3441
aS'all'
p3443
aa(lp3444
g3443
aS'relate'
p3445
aa(lp3446
S'home'
p3447
aS'alone'
p3448
aa(lp3449
g3448
aS'on'
p3450
aa(lp3451
g3450
aS'a'
p3452
aa(lp3453
g3452
aS'saturday'
p3454
aa(lp3455
g3454
aS'night'
p3456
aa(lp3457
g3456
aS'did'
p3458
aa(lp3459
g3458
aS'my'
p3460
aa(lp3461
g3460
aS'makeup'
p3462
aa(lp3463
g3462
aS'to'
p3464
aa(lp3465
g3464
aS'third'
p3466
aa(lp3467
g3466
aS'eye'
p3468
aa(lp3469
g3468
aS'blinds'
p3470
aa(lp3471
g3470
aS'greatest'
p3472
aa(lp3473
g3472
aS'hits'
p3474
aa(lp3475
g3474
aS'so'
p3476
aa(lp3477
g3476
aS'you'
p3478
aa(lp3479
g3478
aS'know'
p3480
aa(lp3481
g3480
aS'im'
p3482
aa(lp3483
S'y'
p3484
aS'am'
p3485
aa(lp3486
g3485
aS'i'
p3487
aa(lp3488
g3487
aS'so'
p3489
aa(lp3490
S'hahaha'
p3491
aS'no'
p3492
aa(lp3493
g3492
aS'its'
p3494
aa(lp3495
g3494
aS'a'
p3496
aa(lp3497
g3496
aS'book'
p3498
aa(lp3499
g3498
aS'called'
p3500
aa(lp3501
g3500
aS'thirteen'
p3502
aa(lp3503
g3502
aS'reasons'
p3504
aa(lp3505
g3504
aS'why'
p3506
aa(lp3507
g3506
aS'a'
p3508
aa(lp3509
S'girl'
p3510
aS'commits'
p3511
aa(lp3512
g3511
aS'suicide'
p3513
aa(lp3514
S'and'
p3515
aS'makes'
p3516
aa(lp3517
g3516
aS'tapes'
p3518
aa(lp3519
g3518
aS'of'
p3520
aa(lp3521
g3520
aS'why'
p3522
aa(lp3523
g3522
aS'she'
p3524
aa(lp3525
g3524
aS'did'
p3526
aa(lp3527
g3526
aS'it'
p3528
aa(lp3529
S'suicide'
p3530
aS'squeeze'
p3531
aa(lp3532
g3531
aS'walk'
p3533
aa(lp3534
g3533
aS'off'
p3535
aa(lp3536
S'yall'
p3537
aS'make'
p3538
aa(lp3539
g3538
aS'me'
p3540
aa(lp3541
g3540
aS'temp'
p3542
aa(lp3543
g3542
aS'suicide'
p3544
aa(lp3545
S'i'
p3546
aS'didnt'
p3547
aa(lp3548
g3547
aS'expect'
p3549
aa(lp3550
S'this'
p3551
aS'really'
p3552
aa(lp3553
g3552
aS'makes'
p3554
aa(lp3555
S'me'
p3556
aS'tear'
p3557
aa(lp3558
g3557
aS'up'
p3559
aa(lp3560
g3559
aS'such'
p3561
aa(lp3562
g3561
aS'a'
p3563
aa(lp3564
g3563
aS'beautiful'
p3565
aa(lp3566
g3565
aS'angel'
p3567
aa(lp3568
g3567
aS'may'
p3569
aa(lp3570
g3569
aS'she'
p3571
aa(lp3572
g3571
aS'rest'
p3573
aa(lp3574
S'the'
p3575
aS'fake'
p3576
aa(lp3577
g3576
aS'king'
p3578
aa(lp3579
g3578
aS'and'
p3580
aa(lp3581
S'the'
p3582
aS'others'
p3583
aa(lp3584
g3583
aS'caused'
p3585
aa(lp3586
g3585
aS'these'
p3587
aa(lp3588
g3587
aS'suicides'
p3589
aa(lp3590
g3589
aS'of'
p3591
aa(lp3592
g3591
aS'course'
p3593
aa(lp3594
g3593
aS'then'
p3595
aa(lp3596
g3595
aS'they'
p3597
aa(lp3598
g3597
aS'say'
p3599
aa(lp3600
g3599
aS'suicide'
p3601
aa(lp3602
S'is'
p3603
aS'wrong'
p3604
aa(lp3605
g3604
aS'they'
p3606
aa(lp3607
g3606
aS'cannot'
p3608
aa(lp3609
g3608
aS'get'
p3610
aa(lp3611
g3610
aS'a'
p3612
aa(lp3613
g3612
aS'normal'
p3614
aa(lp3615
g3614
aS'funerali'
p3616
aa(lp3617
g3616
aS'swear'
p3618
aa(lp3619
S'damn'
p3620
aS'bro'
p3621
aa(lp3622
g3621
aS'this'
p3623
aa(lp3624
g3623
aS'time'
p3625
aa(lp3626
g3625
aS'last'
p3627
aa(lp3628
g3627
aS'year'
p3629
aa(lp3630
g3629
aS'i'
p3631
aa(lp3632
S'and'
p3633
aS'couldnt'
p3634
aa(lp3635
g3634
aS'see'
p3636
aa(lp3637
g3636
aS'the'
p3638
aa(lp3639
g3638
aS'light'
p3640
aa(lp3641
S'according'
p3642
aS'to'
p3643
aa(lp3644
g3643
aS'his'
p3645
aa(lp3646
S'own'
p3647
aS'confessions'
p3648
aa(lp3649
g3648
aS'hitler'
p3650
aa(lp3651
g3650
aS'was'
p3652
aa(lp3653
g3652
aS'a'
p3654
aa(lp3655
g3654
aS'christian'
p3656
aa(lp3657
g3656
aS'soooo'
p3658
aa(lp3659
S'and'
p3660
aS'yes'
p3661
aa(lp3662
S'am'
p3663
aS'saying'
p3664
aa(lp3665
g3664
aS'that'
p3666
aa(lp3667
S'i'
p3668
aS'want'
p3669
aa(lp3670
S'make'
p3671
aS'suicide'
p3672
aa(lp3673
g3672
aS'easy'
p3674
aa(lp3675
g3674
aS'perhaps'
p3676
aa(lp3677
g3676
aS'the'
p3678
aa(lp3679
g3678
aS'clinic'
p3680
aa(lp3681
g3680
aS'could'
p3682
aa(lp3683
g3682
aS'use'
p3684
aa(lp3685
g3684
aS'a'
p3686
aa(lp3687
g3686
aS'painless'
p3688
aa(lp3689
g3688
aS'gas'
p3690
aa(lp3691
g3690
aS'or'
p3692
aa(lp3693
g3692
aS'something'
p3694
aa(lp3695
g3694
aS'idk'
p3696
aa(lp3697
S'anymore'
p3698
aS'april'
p3699
aa(lp3700
S'im'
p3701
aS'a'
p3702
aa(lp3703
S'note'
p3704
aS'hidden'
p3705
aa(lp3706
g3705
aS'in'
p3707
aa(lp3708
S'a'
p3709
aS'poem'
p3710
aa(lp3711
S'is'
p3712
aS'like'
p3713
aa(lp3714
g3713
aS'depressed'
p3715
aa(lp3716
g3715
aS'climbing'
p3717
aa(lp3718
g3717
aS'up'
p3719
aa(lp3720
g3719
aS'picking'
p3721
aa(lp3722
g3721
aS'up'
p3723
aa(lp3724
g3723
aS'your'
p3725
aa(lp3726
g3725
aS'boots'
p3727
aa(lp3728
g3727
aS'music'
p3729
aa(lp3730
S'the'
p3731
aS'shot'
p3732
aa(lp3733
g3732
aS'i'
p3734
aa(lp3735
g3734
aS'deal'
p3736
aa(lp3737
g3736
aS'with'
p3738
aa(lp3739
g3738
aS'every'
p3740
aa(lp3741
g3740
aS'single'
p3742
aa(lp3743
g3742
aS'fucking'
p3744
aa(lp3745
g3744
aS'day'
p3746
aa(lp3747
g3746
aS'the'
p3748
aa(lp3749
g3748
aS'amount'
p3750
aa(lp3751
g3750
aS'of'
p3752
aa(lp3753
g3752
aS'times'
p3754
aa(lp3755
g3754
aS'ive'
p3756
aa(lp3757
g3756
aS'attempted'
p3758
aa(lp3759
g3758
aS'suicide'
p3760
aa(lp3761
S'a'
p3762
aS'scale'
p3763
aa(lp3764
g3763
aS'of'
p3765
aa(lp3766
g3765
aS'1'
p3767
aa(lp3768
g3767
aS'sadish'
p3769
aa(lp3770
g3769
aS'to'
p3771
aa(lp3772
g3771
aS'10'
p3773
aa(lp3774
g3773
aS'contemplating'
p3775
aa(lp3776
g3775
aS'suicide'
p3777
aa(lp3778
S'a'
p3779
aS'9'
p3780
aa(lp3781
S'houston'
p3782
aS'police'
p3783
aa(lp3784
g3783
aS'sergeant'
p3785
aa(lp3786
g3785
aS'commits'
p3787
aa(lp3788
S'at'
p3789
aS'station'
p3790
aa(lp3791
S'i'
p3792
aS'already'
p3793
aa(lp3794
g3793
aS'have'
p3795
aa(lp3796
S'note'
p3797
aS'with'
p3798
aa(lp3799
g3798
aS'ur'
p3800
aa(lp3801
g3800
aS'names'
p3802
aa(lp3803
g3802
aS'on'
p3804
aa(lp3805
g3804
aS'it'
p3806
aa(lp3807
S'who'
p3808
aS'ever'
p3809
aa(lp3810
g3809
aS'made'
p3811
aa(lp3812
g3811
aS'dear'
p3813
aa(lp3814
g3813
aS'white'
p3815
aa(lp3816
g3815
aS'people'
p3817
aa(lp3818
g3817
aS'should'
p3819
aa(lp3820
g3819
aS'consider'
p3821
aa(lp3822
g3821
aS'suicide'
p3823
aa(lp3824
S'hmmm'
p3825
aS'looks'
p3826
aa(lp3827
g3826
aS'like'
p3828
aa(lp3829
g3828
aS'staples'
p3830
aa(lp3831
g3830
aS'office'
p3832
aa(lp3833
g3832
aS'supply'
p3834
aa(lp3835
g3834
aS'is'
p3836
aa(lp3837
g3836
aS'opting'
p3838
aa(lp3839
g3838
aS'business'
p3840
aa(lp3841
g3840
aS'suicide'
p3842
aa(lp3843
g3842
aS'ps'
p3844
aa(lp3845
g3844
aS'thanks'
p3846
aa(lp3847
g3846
aS'for'
p3848
aa(lp3849
g3848
aS'taking'
p3850
aa(lp3851
g3850
aS'my'
p3852
aa(lp3853
g3852
aS'300'
p3854
aa(lp3855
g3854
aS'bucks'
p3856
aa(lp3857
g3856
aS'in'
p3858
aa(lp3859
S'that'
p3860
aS'young'
p3861
aa(lp3862
g3861
aS'model'
p3863
aa(lp3864
g3863
aS'who'
p3865
aa(lp3866
g3865
aS'was'
p3867
aa(lp3868
g3867
aS'also'
p3869
aa(lp3870
g3869
aS'studying'
p3871
aa(lp3872
g3871
aS'to'
p3873
aa(lp3874
S'become'
p3875
aS'a'
p3876
aa(lp3877
g3876
aS'doctor'
p3878
aa(lp3879
g3878
aS'that'
p3880
aa(lp3881
g3880
aS'died'
p3882
aa(lp3883
g3882
aS'of'
p3884
aa(lp3885
g3884
aS'an'
p3886
aa(lp3887
g3886
aS'apparent'
p3888
aa(lp3889
g3888
aS'suicide'
p3890
aa(lp3891
S'very'
p3892
aS'sad'
p3893
aa(lp3894
g3893
aS'i'
p3895
aa(lp3896
g3895
aS'hope'
p3897
aa(lp3898
g3897
aS'they'
p3899
aa(lp3900
g3899
aS'figure'
p3901
aa(lp3902
g3901
aS'out'
p3903
aa(lp3904
g3903
aS'the'
p3905
aa(lp3906
g3905
aS'truth'
p3907
aa(lp3908
S'breaks'
p3909
aS'my'
p3910
aa(lp3911
S'good'
p3912
aS'economy'
p3913
aa(lp3914
g3913
aS'means'
p3915
aa(lp3916
g3915
aS'less'
p3917
aa(lp3918
g3917
aS'depression'
p3919
aa(lp3920
g3919
aS'less'
p3921
aa(lp3922
g3921
aS'suicide'
p3923
aa(lp3924
S'and'
p3925
aS'overall'
p3926
aa(lp3927
g3926
aS'a'
p3928
aa(lp3929
S'better'
p3930
aS'society'
p3931
aa(lp3932
g3931
aS'worldwide'
p3933
aa(lp3934
g3933
aS'not'
p3935
aa(lp3936
g3935
aS'just'
p3937
aa(lp3938
g3937
aS'in'
p3939
aa(lp3940
S'the'
p3941
aS'us'
p3942
aa(lp3943
S'its'
p3944
aS'humbling'
p3945
aa(lp3946
g3945
aS'to'
p3947
aa(lp3948
g3947
aS'think'
p3949
aa(lp3950
g3949
aS'about'
p3951
aa(lp3952
g3951
aS'where'
p3953
aa(lp3954
g3953
aS'i'
p3955
aa(lp3956
S'am'
p3957
aS'today'
p3958
aa(lp3959
g3958
aS'from'
p3960
aa(lp3961
g3960
aS'a'
p3962
aa(lp3963
g3962
aS'year'
p3964
aa(lp3965
g3964
aS'amp'
p3966
aa(lp3967
g3966
aS'a'
p3968
aa(lp3969
g3968
aS'half'
p3970
aa(lp3971
g3970
aS'ago'
p3972
aa(lp3973
g3972
aS'from'
p3974
aa(lp3975
g3974
aS'suicide'
p3976
aa(lp3977
S'note'
p3978
aS'depression'
p3979
aa(lp3980
g3979
aS'amp'
p3981
aa(lp3982
g3981
aS'ready'
p3983
aa(lp3984
g3983
aS'to'
p3985
aa(lp3986
g3985
aS'end'
p3987
aa(lp3988
g3987
aS'my'
p3989
aa(lp3990
g3989
aS'lifeto'
p3991
aa(lp3992
g3991
aS'now'
p3993
aa(lp3994
S'depressed'
p3995
aS'the'
p3996
aa(lp3997
g3996
aS'last'
p3998
aa(lp3999
g3998
aS'episode'
p4000
aa(lp4001
g4000
aS'of'
p4002
aa(lp4003
S'the'
p4004
aS'season'
p4005
aa(lp4006
g4005
aS'of'
p4007
aa(lp4008
g4007
aS'twd'
p4009
aa(lp4010
g4009
aS'is'
p4011
aa(lp4012
g4011
aS'tm'
p4013
aa(lp4014
S'havent'
p4015
aS'sat'
p4016
aa(lp4017
g4016
aS'and'
p4018
aa(lp4019
g4018
aS'watched'
p4020
aa(lp4021
g4020
aS'champs'
p4022
aa(lp4023
g4022
aS'since'
p4024
aa(lp4025
S'i'
p4026
aS'stopped'
p4027
aa(lp4028
g4027
aS'doing'
p4029
aa(lp4030
g4029
aS'tracks'
p4031
aa(lp4032
g4031
aS'cause'
p4033
aa(lp4034
g4033
aS'im'
p4035
aa(lp4036
g4035
aS'super'
p4037
aa(lp4038
g4037
aS'bitter'
p4039
aa(lp4040
g4039
aS'and'
p4041
aa(lp4042
S'get'
p4043
aS'super'
p4044
aa(lp4045
S'watching'
p4046
aS'naruto'
p4047
aa(lp4048
g4047
aS'while'
p4049
aa(lp4050
g4049
aS'im'
p4051
aa(lp4052
S'and'
p4053
aS'high'
p4054
aa(lp4055
S'the'
p4056
aS'one'
p4057
aa(lp4058
g4057
aS'mentioned'
p4059
aa(lp4060
g4059
aS'in'
p4061
aa(lp4062
S'the'
p4063
aS'questionwhy'
p4064
aa(lp4065
g4064
aS'would'
p4066
aa(lp4067
g4066
aS'u'
p4068
aa(lp4069
g4068
aS'be'
p4070
aa(lp4071
S'depressed'
p4072
ag241
aa(lp4073
g241
aS'lol'
p4074
aa(lp4075
S'the'
p4076
aS'militants'
p4077
aa(lp4078
g4077
aS'had'
p4079
aa(lp4080
g4079
aS'performed'
p4081
aa(lp4082
g4081
aS'the'
p4083
aa(lp4084
g4083
aS'first'
p4085
aa(lp4086
g4085
aS'indiscriminate'
p4087
aa(lp4088
g4087
aS'suicideattack'
p4089
aa(lp4090
g4089
aS'on'
p4091
aa(lp4092
g4091
aS'civilians'
p4093
aa(lp4094
g4093
aS'in'
p4095
aa(lp4096
g4095
aS'bangladesh'
p4097
aa(lp4098
S'mom'
p4099
aS'i'
p4100
aa(lp4101
g4100
aS'missed'
p4102
aa(lp4103
g4102
aS'my'
p4104
aa(lp4105
g4104
aS'cat'
p4106
aa(lp4107
g4106
aS'and'
p4108
aa(lp4109
S'she'
p4110
aS'goes'
p4111
aa(lp4112
g4111
aS'did'
p4113
aa(lp4114
S'you'
p4115
aS'just'
p4116
aa(lp4117
g4116
aS'start'
p4118
aa(lp4119
g4118
aS'thinking'
p4120
aa(lp4121
g4120
aS'about'
p4122
aa(lp4123
S'it'
p4124
aS'recently'
p4125
aa(lp4126
g4125
aS'uh'
p4127
aa(lp4128
g4127
aS'3'
p4129
aa(lp4130
g4129
aS'weeks'
p4131
aa(lp4132
S'ago'
p4133
aS'wow'
p4134
aa(lp4135
g4134
aS'yeah'
p4136
aa(lp4137
g4136
aS'hi'
p4138
aa(lp4139
g4138
aS'im'
p4140
aa(lp4141
S'you'
p4142
aS'look'
p4143
aa(lp4144
g4143
aS'depressed'
p4145
aa(lp4146
g4145
aS'thanks'
p4147
aa(lp4148
g4147
aS'its'
p4149
aa(lp4150
g4149
aS'the'
p4151
aa(lp4152
g4151
aS'depression'
p4153
aa(lp4154
S'think'
p4155
aS'this'
p4156
aa(lp4157
S'the'
p4158
aS'most'
p4159
aa(lp4160
g4159
aS'depressed'
p4161
aa(lp4162
g4161
aS'ive'
p4163
aa(lp4164
g4163
aS'been'
p4165
aa(lp4166
g4165
aS'in'
p4167
aa(lp4168
g4167
aS'months'
p4169
aa(lp4170
S'know'
p4171
aS'fans'
p4172
aa(lp4173
g4172
aS'are'
p4174
aa(lp4175
g4174
aS'depressed'
p4176
aa(lp4177
S'when'
p4178
aS'no'
p4179
aa(lp4180
g4179
aS'one'
p4181
aa(lp4182
g4181
aS'is'
p4183
aa(lp4184
g4183
aS'harassing'
p4185
aa(lp4186
g4185
aS'me'
p4187
aa(lp4188
S'do'
p4189
aS'a'
p4190
aa(lp4191
g4190
aS'periscope'
p4192
aa(lp4193
S'saw'
p4194
aS'theory'
p4195
aa(lp4196
g4195
aS'of'
p4197
aa(lp4198
g4197
aS'therapy'
p4199
aa(lp4200
g4199
aS'depressed'
p4201
aa(lp4202
g4201
aS'folks'
p4203
aa(lp4204
g4203
aS'become'
p4205
aa(lp4206
g4205
aS'energized'
p4207
aa(lp4208
g4207
aS'and'
p4209
aa(lp4210
g4209
aS'appreciate'
p4211
aa(lp4212
g4211
aS'life'
p4213
aa(lp4214
g4213
aS'just'
p4215
aa(lp4216
S'as'
p4217
aS'they'
p4218
aa(lp4219
g4218
aS'are'
p4220
aa(lp4221
g4220
aS'being'
p4222
aa(lp4223
g4222
aS'hacked'
p4224
aa(lp4225
g4224
aS'to'
p4226
aa(lp4227
g4226
aS'death'
p4228
aa(lp4229
S'oh'
p4230
aS'just'
p4231
aa(lp4232
g4231
aS'your'
p4233
aa(lp4234
g4233
aS'typical'
p4235
aa(lp4236
g4235
aS'i'
p4237
aa(lp4238
g4237
aS'faked'
p4239
aa(lp4240
g4239
aS'suicide'
p4241
aa(lp4242
g4241
aS'cause'
p4243
aa(lp4244
g4243
aS'people'
p4245
aa(lp4246
S'are'
p4247
aS'bullies'
p4248
aa(lp4249
S'is'
p4250
aS'justin'
p4251
aa(lp4252
g4251
aS'depressed'
p4253
aa(lp4254
S'if'
p4255
aS'you'
p4256
aa(lp4257
g4256
aS'fuck'
p4258
aa(lp4259
g4258
aS'me'
p4260
aa(lp4261
g4260
aS'over'
p4262
aa(lp4263
g4262
aS'dont'
p4264
aa(lp4265
g4264
aS'come'
p4266
aa(lp4267
S'back'
p4268
aS'unless'
p4269
aa(lp4270
g4269
aS'youre'
p4271
aa(lp4272
g4271
aS'on'
p4273
aa(lp4274
S'suicide'
p4275
aS'mission'
p4276
aa(lp4277
S'way'
p4278
aS'back'
p4279
aa(lp4280
g4279
aS'twitter'
p4281
aa(lp4282
g4281
aS'was'
p4283
aa(lp4284
g4283
aS'like'
p4285
aa(lp4286
S'a'
p4287
aS'personal'
p4288
aa(lp4289
g4288
aS'diary'
p4290
aa(lp4291
g4290
aS'you'
p4292
aa(lp4293
g4292
aS'dare'
p4294
aa(lp4295
g4294
aS'not'
p4296
aa(lp4297
g4296
aS'try'
p4298
aa(lp4299
g4298
aS'it'
p4300
aa(lp4301
g4300
aS'today'
p4302
aa(lp4303
g4302
aS'they'
p4304
aa(lp4305
g4304
aS'can'
p4306
aa(lp4307
g4306
aS'bully'
p4308
aa(lp4309
g4308
aS'somebody'
p4310
aa(lp4311
g4310
aS'to'
p4312
aa(lp4313
g4312
aS'even'
p4314
aa(lp4315
g4314
aS'commit'
p4316
aa(lp4317
S'physicianassisted'
p4318
aS'suicide'
p4319
aa(lp4320
g4319
aS'could'
p4321
aa(lp4322
g4321
aS'soon'
p4323
aa(lp4324
g4323
aS'be'
p4325
aa(lp4326
g4325
aS'legal'
p4327
aa(lp4328
g4327
aS'in'
p4329
aa(lp4330
S'the'
p4331
aS'nations'
p4332
aa(lp4333
g4332
aS'capital'
p4334
aa(lp4335
S'as'
p4336
aS'shit'
p4337
aa(lp4338
g4337
aS'rn'
p4339
aa(lp4340
g4339
aS'i'
p4341
aa(lp4342
S'know'
p4343
aS'why'
p4344
aa(lp4345
g4344
aS'it'
p4346
aa(lp4347
g4346
aS'started'
p4348
aa(lp4349
g4348
aS'like'
p4350
aa(lp4351
S'a'
p4352
aS'month'
p4353
aa(lp4354
g4353
aS'ago'
p4355
aa(lp4356
S'do'
p4357
aS'i'
p4358
aa(lp4359
g4358
aS'really'
p4360
aa(lp4361
g4360
aS'make'
p4362
aa(lp4363
g4362
aS'pisces'
p4364
aa(lp4365
g4364
aS'sound'
p4366
aa(lp4367
g4366
aS'depressed'
p4368
aa(lp4369
g4368
aS'hm'
p4370
aa(lp4371
S'or'
p4372
aS'else'
p4373
aa(lp4374
g4373
aS'youll'
p4375
aa(lp4376
g4375
aS'end'
p4377
aa(lp4378
g4377
aS'up'
p4379
aa(lp4380
g4379
aS'like'
p4381
aa(lp4382
S'a'
p4383
aS'depressed'
p4384
aa(lp4385
g4384
aS'drunk'
p4386
aa(lp4387
g4386
aS'like'
p4388
aa(lp4389
g4388
aS'me'
p4390
aa(lp4391
g4390
aS'which'
p4392
aa(lp4393
g4392
aS'isnt'
p4394
aa(lp4395
g4394
aS'bad'
p4396
aa(lp4397
g4396
aS'but'
p4398
aa(lp4399
g4398
aS'do'
p4400
aa(lp4401
g4400
aS'the'
p4402
aa(lp4403
g4402
aS'other'
p4404
aa(lp4405
g4404
aS'thing'
p4406
aa(lp4407
g4406
aS'its'
p4408
aa(lp4409
g4408
aS'way'
p4410
aa(lp4411
g4410
aS'better'
p4412
aa(lp4413
S'im'
p4414
aS'happy'
p4415
aa(lp4416
g4415
aS'one'
p4417
aa(lp4418
g4417
aS'day'
p4419
aa(lp4420
g4419
aS'and'
p4421
aa(lp4422
g4421
aS'fucking'
p4423
aa(lp4424
g4423
aS'depressed'
p4425
aa(lp4426
S'other'
p4427
aS'like'
p4428
aa(lp4429
g4428
aS'the'
p4430
aa(lp4431
g4430
aS'fuck'
p4432
aa(lp4433
S'just'
p4434
aS'wait'
p4435
aa(lp4436
g4435
aS'till'
p4437
aa(lp4438
g4437
aS'she'
p4439
aa(lp4440
S'is'
p4441
aS'our'
p4442
aa(lp4443
g4442
aS'first'
p4444
aa(lp4445
g4444
aS'female'
p4446
aa(lp4447
g4446
aS'president'
p4448
aa(lp4449
g4448
ag241
aa(lp4450
g241
aS'the'
p4451
aa(lp4452
g4451
aS'left'
p4453
aa(lp4454
g4453
aS'will'
p4455
aa(lp4456
g4455
aS'commit'
p4457
aa(lp4458
S'this'
p4459
aS'girl'
p4460
aa(lp4461
S'that'
p4462
aS'committed'
p4463
aa(lp4464
S'suicide'
p4465
aS'leaves'
p4466
aa(lp4467
g4466
aS'tapes'
p4468
aa(lp4469
g4468
aS'for'
p4470
aa(lp4471
S'the'
p4472
aS'people'
p4473
aa(lp4474
g4473
aS'that'
p4475
aa(lp4476
g4475
aS'affected'
p4477
aa(lp4478
g4477
aS'her'
p4479
aa(lp4480
S'to'
p4481
aS'listen'
p4482
aa(lp4483
g4482
aS'to'
p4484
aa(lp4485
S'feels'
p4486
aS'depressed'
p4487
aa(lp4488
g241
aS'oh'
p4489
aa(lp4490
g4489
aS'awesome'
p4491
aa(lp4492
g4491
aS'something'
p4493
aa(lp4494
g4493
aS'to'
p4495
aa(lp4496
g4495
aS'tweet'
p4497
aa(lp4498
g4497
aS'about'
p4499
aa(lp4500
S'this'
p4501
aS'project'
p4502
aa(lp4503
g4502
aS'legit'
p4504
aa(lp4505
g4504
aS'helped'
p4506
aa(lp4507
g4506
aS'me'
p4508
aa(lp4509
g4508
aS'out'
p4510
aa(lp4511
g4510
aS'this'
p4512
aa(lp4513
g4512
aS'honestly'
p4514
aa(lp4515
g4514
aS'hurt'
p4516
aa(lp4517
S'welp'
p4518
aS'yt'
p4519
aa(lp4520
g4519
aS'is'
p4521
aa(lp4522
S'really'
p4523
aS'trying'
p4524
aa(lp4525
S'suicide'
p4526
aS'time'
p4527
aa(lp4528
S'to'
p4529
aS'move'
p4530
aa(lp4531
g4530
aS'to'
p4532
aa(lp4533
S'a'
p4534
aS'other'
p4535
aa(lp4536
g4535
aS'platform'
p4537
aa(lp4538
g4537
aS'then'
p4539
aa(lp4540
S'one'
p4541
aS'knows'
p4542
aa(lp4543
g4542
aS'bis'
p4544
aa(lp4545
g4544
aS'ability'
p4546
aa(lp4547
g4546
aS'im'
p4548
aa(lp4549
S'help'
p4550
aS'me'
p4551
aa(lp4552
g4551
aS'spread'
p4553
aa(lp4554
g4553
aS'the'
p4555
aa(lp4556
g4555
aS'word'
p4557
aa(lp4558
g4557
aS'storytime'
p4559
aa(lp4560
g4559
ag241
aa(lp4561
S'he'
p4562
aS'was'
p4563
aa(lp4564
g4563
aS'taken'
p4565
aa(lp4566
g4565
aS'too'
p4567
aa(lp4568
g4567
aS'soon'
p4569
aa(lp4570
S'hate'
p4571
aS'being'
p4572
aa(lp4573
g4572
aS'in'
p4574
aa(lp4575
S'depressed'
p4576
aS'mood'
p4577
aa(lp4578
g4577
aS'for'
p4579
aa(lp4580
g4579
aS'no'
p4581
aa(lp4582
g4581
aS'reason'
p4583
aa(lp4584
S'extra'
p4585
aS'wet'
p4586
aa(lp4587
g4586
aS'cause'
p4588
aa(lp4589
g4588
aS'its'
p4590
aa(lp4591
g4590
aS'crying'
p4592
aa(lp4593
S'great'
p4594
aS'tasting'
p4595
aa(lp4596
g4595
aS'beer'
p4597
aa(lp4598
g4597
aS'good'
p4599
aa(lp4600
g4599
aS'job'
p4601
aa(lp4602
g4601
ag241
aa(lp4603
g241
aS'drinking'
p4604
aa(lp4605
g4604
aS'a'
p4606
aa(lp4607
S'squeeze'
p4608
aS'special'
p4609
aa(lp4610
g4609
aS'edition'
p4611
aa(lp4612
g4611
aS'constitution'
p4613
aa(lp4614
g4613
aS'park'
p4615
aa(lp4616
g4615
ag241
aa(lp4617
S'aww'
p4618
aS'man'
p4619
aa(lp4620
g4619
aS'rip'
p4621
aa(lp4622
S'lmao'
p4623
aS'suicide'
p4624
aa(lp4625
g4624
aS'if'
p4626
aa(lp4627
g4626
aS'fo'
p4628
aa(lp4629
g4628
aS'pussys'
p4630
aa(lp4631
g4630
aS'april'
p4632
aa(lp4633
S'fools'
p4634
aS'you'
p4635
aa(lp4636
g4635
aS'chinks'
p4637
aa(lp4638
S'edition'
p4639
aS'by'
p4640
aa(lp4641
g4640
ag241
aa(lp4642
S'i'
p4643
aS'used'
p4644
aa(lp4645
g4644
aS'to'
p4646
aa(lp4647
S'to'
p4648
aS'drunk'
p4649
aa(lp4650
g4649
aS'constantly'
p4651
aa(lp4652
g4651
aS'years'
p4653
aa(lp4654
g4653
aS'ago'
p4655
aa(lp4656
g4655
aS'lmao'
p4657
aa(lp4658
g4657
aS'was'
p4659
aa(lp4660
S'dont'
p4661
aS'look'
p4662
aa(lp4663
g4662
aS'down'
p4664
aa(lp4665
g4664
aS'youll'
p4666
aa(lp4667
g4666
aS'be'
p4668
aa(lp4669
S'just'
p4670
aS'look'
p4671
aa(lp4672
g4671
aS'to'
p4673
aa(lp4674
g4673
aS'and'
p4675
aa(lp4676
g4675
aS'youll'
p4677
aa(lp4678
S'be'
p4679
aS'blessed'
p4680
aa(lp4681
S'to'
p4682
aS'underage'
p4683
aa(lp4684
g4683
aS'girls'
p4685
aa(lp4686
g4685
aS'asking'
p4687
aa(lp4688
g4687
aS'for'
p4689
aa(lp4690
g4689
aS'nudes'
p4691
aa(lp4692
g4691
aS'amp'
p4693
aa(lp4694
g4693
aS'meetups'
p4695
aa(lp4696
g4695
aS'and'
p4697
aa(lp4698
g4697
aS'when'
p4699
aa(lp4700
S'they'
p4701
aS'rejected'
p4702
aa(lp4703
g4702
aS'him'
p4704
aa(lp4705
g4704
aS'he'
p4706
aa(lp4707
g4706
aS'threatened'
p4708
aa(lp4709
g4708
aS'suicide'
p4710
aa(lp4711
S'and'
p4712
aS'once'
p4713
aa(lp4714
g4713
aS'again'
p4715
aa(lp4716
g4715
aS'used'
p4717
aa(lp4718
g4717
aS'pity'
p4719
aa(lp4720
g4719
aS'for'
p4721
aa(lp4722
S'very'
p4723
aS'depressed'
p4724
aa(lp4725
g4724
aS'bruh'
p4726
aa(lp4727
g4726
aS'where'
p4728
aa(lp4729
g4728
aS'is'
p4730
aa(lp4731
g4730
aS'my'
p4732
aa(lp4733
g4732
aS'goth'
p4734
aa(lp4735
g4734
aS'bitch'
p4736
aa(lp4737
g4736
aS'to'
p4738
aa(lp4739
g4738
aS'comfort'
p4740
aa(lp4741
g4740
aS'me'
p4742
aa(lp4743
g4742
aS'with'
p4744
aa(lp4745
g4744
aS'mad'
p4746
aa(lp4747
g4746
aS'despair'
p4748
aa(lp4749
g4748
aS'and'
p4750
aa(lp4751
g4750
aS'regret'
p4752
aa(lp4753
S'im'
p4754
aS'in'
p4755
aa(lp4756
g4755
aS'such'
p4757
aa(lp4758
S'a'
p4759
aS'sad'
p4760
aa(lp4761
g4760
aS'depressed'
p4762
aa(lp4763
S'been'
p4764
aS'like'
p4765
aa(lp4766
g4765
aS'this'
p4767
aa(lp4768
g4767
aS'since'
p4769
aa(lp4770
g4769
aS'the'
p4771
aa(lp4772
g4771
aS'week'
p4773
aa(lp4774
g4773
aS'started'
p4775
aa(lp4776
S'a'
p4777
aS'final'
p4778
aa(lp4779
g4778
aS'mission'
p4780
aa(lp4781
g4780
aS'rivalling'
p4782
aa(lp4783
g4782
aS'the'
p4784
aa(lp4785
S'mission'
p4786
aS'from'
p4787
aa(lp4788
g4787
aS'me2'
p4789
aa(lp4790
g4789
aS'fuck'
p4791
aa(lp4792
S'me'
p4793
aS'i'
p4794
aa(lp4795
g4794
aS'enjoyed'
p4796
aa(lp4797
g4796
aS'the'
p4798
aa(lp4799
g4798
aS'shit'
p4800
aa(lp4801
g4800
aS'out'
p4802
aa(lp4803
S'of'
p4804
aS'that'
p4805
aa(lp4806
S'golden'
p4807
aS'gate'
p4808
aa(lp4809
g4808
aS'bridge'
p4810
aa(lp4811
g4810
aS'suicide'
p4812
aa(lp4813
g4812
aS'short'
p4814
aa(lp4815
g4814
aS'documentary'
p4816
aa(lp4817
g4816
aS'via'
p4818
aa(lp4819
S'amp'
p4820
aS'really'
p4821
aa(lp4822
g4821
aS'been'
p4823
aa(lp4824
g4823
aS'trying'
p4825
aa(lp4826
S'to'
p4827
aS'keep'
p4828
aa(lp4829
g4828
aS'a'
p4830
aa(lp4831
g4830
aS'smile'
p4832
aa(lp4833
g4832
aS'on'
p4834
aa(lp4835
S'my'
p4836
aS'face'
p4837
aa(lp4838
S'buffet'
p4839
aS'boys'
p4840
aa(lp4841
g4840
aS'with'
p4842
aa(lp4843
g4842
aS'the'
p4844
aa(lp4845
S'does'
p4846
aS'a'
p4847
aa(lp4848
g4847
aS'great'
p4849
aa(lp4850
g4849
aS'job'
p4851
aa(lp4852
g4851
aS'of'
p4853
aa(lp4854
g4853
aS'bringing'
p4855
aa(lp4856
g4855
aS'uncomfortable'
p4857
aa(lp4858
g4857
aS'horrifying'
p4859
aa(lp4860
g4859
aS'topics'
p4861
aa(lp4862
g4861
aS'to'
p4863
aa(lp4864
g4863
aS'light'
p4865
aa(lp4866
g4865
aS'rpe'
p4867
aa(lp4868
g4867
aS'suicide'
p4869
aa(lp4870
g4869
aS'revenge'
p4871
aa(lp4872
g4871
aS'porn'
p4873
aa(lp4874
g4873
aS'etc'
p4875
aa(lp4876
g4875
aS'i'
p4877
aa(lp4878
S'love'
p4879
aS'it'
p4880
aa(lp4881
S'boko'
p4882
aS'harams'
p4883
aa(lp4884
g4883
aS'female'
p4885
aa(lp4886
S'bombers'
p4887
aS'strategy'
p4888
aa(lp4889
S'out'
p4890
aS'our'
p4891
aa(lp4892
g4891
aS'terrorism'
p4893
aa(lp4894
g4893
aS'tutoring'
p4895
aa(lp4896
g4895
aS'options'
p4897
aa(lp4898
g4897
aS'at'
p4899
aa(lp4900
S'dont'
p4901
aS'care'
p4902
aa(lp4903
S'about'
p4904
aS'mulan'
p4905
aa(lp4906
g4905
aS'but'
p4907
aa(lp4908
g4907
aS'cast'
p4909
aa(lp4910
g4909
aS'the'
p4911
aa(lp4912
g4911
aS'girl'
p4913
aa(lp4914
g4913
aS'from'
p4915
aa(lp4916
S'squad'
p4917
aS'clearly'
p4918
aa(lp4919
g4918
aS'shes'
p4920
aa(lp4921
g4920
aS'already'
p4922
aa(lp4923
g4922
aS'good'
p4924
aa(lp4925
g4924
aS'with'
p4926
aa(lp4927
S'a'
p4928
aS'sword'
p4929
aa(lp4930
S'atf'
p4931
aS'report'
p4932
aa(lp4933
g4932
aS'exonerates'
p4934
aa(lp4935
g4934
aS'suppressors'
p4936
aa(lp4937
g4936
aS'from'
p4938
aa(lp4939
g4938
aS'liberal'
p4940
aa(lp4941
g4940
aS'crime'
p4942
aa(lp4943
g4942
aS'claims'
p4944
aa(lp4945
S'mme'
p4946
aS'im'
p4947
aa(lp4948
g4947
aS'feeling'
p4949
aa(lp4950
g4949
aS'down'
p4951
aa(lp4952
g4951
aS'i'
p4953
aa(lp4954
S'should'
p4955
aS'watch'
p4956
aa(lp4957
g4956
aS'some'
p4958
aa(lp4959
g4958
aS'lighthearted'
p4960
aa(lp4961
g4960
aS'tokusatsu'
p4962
aa(lp4963
g4962
aS'me'
p4964
aa(lp4965
g4964
aS'watches'
p4966
aa(lp4967
g4966
aS'a'
p4968
aa(lp4969
g4968
aS'teen'
p4970
aa(lp4971
S'suicide'
p4972
aS'drama'
p4973
aa(lp4974
g4973
aS'instead'
p4975
aa(lp4976
g4975
aS'awesome'
p4977
aa(lp4978
g4977
ag241
aa(lp4979
g241
aS'im'
p4980
aa(lp4981
g4980
aS'fine'
p4982
aa(lp4983
S'itd'
p4984
aS'be'
p4985
aa(lp4986
g4985
aS'cool'
p4987
aa(lp4988
g4987
aS'if'
p4989
aa(lp4990
S'had'
p4991
aS'someone'
p4992
aa(lp4993
g4992
aS'to'
p4994
aa(lp4995
g4994
aS'cuddle'
p4996
aa(lp4997
g4996
aS'with'
p4998
aa(lp4999
g4998
aS'andor'
p5000
aa(lp5001
g5000
aS'alcohol'
p5002
aa(lp5003
g5002
aS'then'
p5004
aa(lp5005
g5004
aS'id'
p5006
aa(lp5007
g5006
aS'be'
p5008
aa(lp5009
g5008
aS'less'
p5010
aa(lp5011
g5010
aS'depressed'
p5012
aa(lp5013
S'staying'
p5014
aS'alive'
p5015
aa(lp5016
g5015
aS'a'
p5017
aa(lp5018
S'few'
p5019
aS'more'
p5020
aa(lp5021
g5020
aS'hours'
p5022
aa(lp5023
g5022
aS'just'
p5024
aa(lp5025
g5024
aS'to'
p5026
aa(lp5027
S'prove'
p5028
aS'to'
p5029
aa(lp5030
g5029
aS'yourself'
p5031
aa(lp5032
g5031
aS'that'
p5033
aa(lp5034
g5033
aS'suicide'
p5035
aa(lp5036
g5035
aS'hrs'
p5037
aa(lp5038
g5037
aS'ago'
p5039
aa(lp5040
g5039
aS'wouldnt'
p5041
aa(lp5042
g5041
aS'have'
p5043
aa(lp5044
g5043
aS'changed'
p5045
aa(lp5046
g5045
aS'anything'
p5047
aa(lp5048
S'incredible'
p5049
aS'way'
p5050
aa(lp5051
g5050
aS'out'
p5052
aa(lp5053
S'of'
p5054
aS'linepreventing'
p5055
aa(lp5056
g5055
aS'me'
p5057
aa(lp5058
g5057
aS'from'
p5059
aa(lp5060
g5059
aS'leaving'
p5061
aa(lp5062
g5061
aS'their'
p5063
aa(lp5064
g5063
aS'hell'
p5065
aa(lp5066
g5065
aS'why'
p5067
aa(lp5068
g5067
aS'they'
p5069
aa(lp5070
g5069
aS'love'
p5071
aa(lp5072
g5071
aS'bullying'
p5073
aa(lp5074
g5073
aS'but'
p5075
aa(lp5076
g5075
aS'i'
p5077
aa(lp5078
g5077
aS'will'
p5079
aa(lp5080
S'suicide'
p5081
aS'we'
p5082
aa(lp5083
g5082
aS'tear'
p5084
aa(lp5085
g5084
aS'you'
p5086
aa(lp5087
g5086
aS'all'
p5088
aa(lp5089
g5088
aS'down'
p5090
aa(lp5091
S'quinn'
p5092
aS'daddys'
p5093
aa(lp5094
g5093
aS'lil'
p5095
aa(lp5096
g5095
aS'monster'
p5097
aa(lp5098
g5097
aS'three'
p5099
aa(lp5100
g5099
aS'quarter'
p5101
aa(lp5102
g5101
aS'sleeve'
p5103
aa(lp5104
S'18002738255'
p5105
aS'dont'
p5106
aa(lp5107
g5106
aS'hesitate'
p5108
aa(lp5109
g5108
aS'to'
p5110
aa(lp5111
g5110
aS'reach'
p5112
aa(lp5113
g5112
aS'out'
p5114
aa(lp5115
g5114
aS'for'
p5116
aa(lp5117
g5116
aS'help'
p5118
aa(lp5119
g5118
aS'your'
p5120
aa(lp5121
S'life'
p5122
aS'has'
p5123
aa(lp5124
g5123
aS'so'
p5125
aa(lp5126
S'much'
p5127
aS'value'
p5128
aa(lp5129
S'sadly'
p5130
aS'there'
p5131
aa(lp5132
g5131
aS'are'
p5133
aa(lp5134
g5133
aS'still'
p5135
aa(lp5136
g5135
aS'tens'
p5137
aa(lp5138
g5137
aS'of'
p5139
aa(lp5140
g5139
aS'thousands'
p5141
aa(lp5142
g5141
aS'more'
p5143
aa(lp5144
g5143
aS'daesh'
p5145
aa(lp5146
g5145
aS'cockroaches'
p5147
aa(lp5148
g5147
aS'to'
p5149
aa(lp5150
g5149
aS'squash'
p5151
aa(lp5152
S'a'
p5153
aS'actually'
p5154
aa(lp5155
g5154
aS'a'
p5156
aa(lp5157
g5156
aS'real'
p5158
aa(lp5159
g5158
aS'problem'
p5160
aa(lp5161
g5160
aS'so'
p5162
aa(lp5163
g5162
aS'stop'
p5164
aa(lp5165
g5164
aS'joking'
p5166
aa(lp5167
g5166
aS'about'
p5168
aa(lp5169
g5168
aS'then'
p5170
aa(lp5171
S'dirk'
p5172
aS'im'
p5173
aa(lp5174
g5173
aS'about'
p5175
aa(lp5176
g5175
aS'to'
p5177
aa(lp5178
g5177
aS'turn'
p5179
aa(lp5180
g5179
aS'my'
p5181
aa(lp5182
S'suicide'
p5183
aS'into'
p5184
aa(lp5185
S'a'
p5186
aS'homicide'
p5187
aa(lp5188
g5187
aS'if'
p5189
aa(lp5190
S'you'
p5191
aS'dont'
p5192
aa(lp5193
g5192
aS'knock'
p5194
aa(lp5195
g5194
aS'it'
p5196
aa(lp5197
g5196
aS'off'
p5198
aa(lp5199
S'eat'
p5200
aS'arbys'
p5201
aa(lp5202
S'need'
p5203
aS'free'
p5204
aa(lp5205
g5204
aS'hosting'
p5206
aa(lp5207
g5206
aS'visit'
p5208
aa(lp5209
g5208
aS'uwq'
p5210
aa(lp5211
S'just'
p5212
aS'got'
p5213
aa(lp5214
g5213
aS'weirdly'
p5215
aa(lp5216
g5215
aS'depressed'
p5217
aa(lp5218
S'of'
p5219
aS'no'
p5220
aa(lp5221
g5220
aS'where'
p5222
aa(lp5223
g5222
aS'lol'
p5224
aa(lp5225
S'this'
p5226
aS'hurts'
p5227
aa(lp5228
g5227
aS'my'
p5229
aa(lp5230
S'suicide'
p5231
aS'among'
p5232
aa(lp5233
g5232
aS'gay'
p5234
aa(lp5235
g5234
aS'teens'
p5236
aa(lp5237
S'warning'
p5238
aS'to'
p5239
aa(lp5240
g5239
aS'those'
p5241
aa(lp5242
g5241
aS'watching'
p5243
aa(lp5244
g5243
aS'13'
p5245
aa(lp5246
g5245
aS'reasons'
p5247
aa(lp5248
S'why'
p5249
aS'episode'
p5250
aa(lp5251
g5250
aS'13'
p5252
aa(lp5253
g5252
aS'minute'
p5254
aa(lp5255
g5254
aS'3700'
p5256
aa(lp5257
g5256
ag241
aa(lp5258
g241
aS'3900'
p5259
aa(lp5260
g5259
aS'self'
p5261
aa(lp5262
g5261
aS'harmsuicide'
p5263
aa(lp5264
S'and'
p5265
aS'by'
p5266
aa(lp5267
g5266
aS'girl'
p5268
aa(lp5269
S'squad'
p5270
aS'i'
p5271
aa(lp5272
g5271
aS'mean'
p5273
aa(lp5274
g5273
aS'viola'
p5275
aa(lp5276
g5275
aS'davis'
p5277
aa(lp5278
g5277
aS'clearly'
p5279
aa(lp5280
S'that'
p5281
aS'battering'
p5282
aa(lp5283
g5282
aS'ramsuicide'
p5284
aa(lp5285
g5284
aS'spot'
p5286
aa(lp5287
g5286
aS'was'
p5288
aa(lp5289
g5288
aS'clever'
p5290
aa(lp5291
g5290
aS'havent'
p5292
aa(lp5293
g5292
aS'seen'
p5294
aa(lp5295
g5294
aS'that'
p5296
aa(lp5297
g5296
aS'before'
p5298
aa(lp5299
S'is'
p5300
aS'gay'
p5301
aa(lp5302
g5301
aS'as'
p5303
aa(lp5304
g5303
aS'hell'
p5305
aa(lp5306
g5305
aS'how'
p5307
aa(lp5308
g5307
aS'u'
p5309
aa(lp5310
g5309
aS'gone'
p5311
aa(lp5312
g5311
aS'blow'
p5313
aa(lp5314
g5313
aS'your'
p5315
aa(lp5316
g5315
aS'head'
p5317
aa(lp5318
g5317
aS'off'
p5319
aa(lp5320
g5319
aS'smh'
p5321
aa(lp5322
S'watch'
p5323
aS'this'
p5324
aa(lp5325
S'video'
p5326
aS'from'
p5327
aa(lp5328
g5327
aS'on'
p5329
aa(lp5330
g5329
aS'how'
p5331
aa(lp5332
S'to'
p5333
aS'talk'
p5334
aa(lp5335
g5334
aS'to'
p5336
aa(lp5337
g5336
aS'young'
p5338
aa(lp5339
g5338
aS'kids'
p5340
aa(lp5341
g5340
aS'amp'
p5342
aa(lp5343
g5342
aS'older'
p5344
aa(lp5345
g5344
aS'teens'
p5346
aa(lp5347
g5346
aS'about'
p5348
aa(lp5349
g5348
aS'amp'
p5350
aa(lp5351
S'the'
p5352
aS'employer'
p5353
aa(lp5354
g5353
aS'claims'
p5355
aa(lp5356
g5355
aS'its'
p5357
aa(lp5358
S'attempt'
p5359
aS'but'
p5360
aa(lp5361
S'the'
p5362
aS'woman'
p5363
aa(lp5364
g5363
aS'was'
p5365
aa(lp5366
g5365
aS'pleading'
p5367
aa(lp5368
g5367
aS'for'
p5369
aa(lp5370
S'to'
p5371
aS'take'
p5372
aa(lp5373
g5372
aS'her'
p5374
aa(lp5375
g5374
aS'hand'
p5376
aa(lp5377
S'what'
p5378
aS'are'
p5379
aa(lp5380
g5379
aS'you'
p5381
aa(lp5382
S'doing'
p5383
aS'for'
p5384
aa(lp5385
g5384
aS'spring'
p5386
aa(lp5387
g5386
aS'break'
p5388
aa(lp5389
g5388
aS'oh'
p5390
aa(lp5391
g5390
aS'ya'
p5392
aa(lp5393
g5392
aS'know'
p5394
aa(lp5395
g5394
aS'laying'
p5396
aa(lp5397
g5396
aS'in'
p5398
aa(lp5399
g5398
aS'bed'
p5400
aa(lp5401
g5400
aS'being'
p5402
aa(lp5403
g5402
aS'a'
p5404
aa(lp5405
S'depressed'
p5406
aS'piece'
p5407
aa(lp5408
g5407
aS'of'
p5409
aa(lp5410
g5409
aS'shit'
p5411
aa(lp5412
S'statistics'
p5413
aS'teen'
p5414
aa(lp5415
S'if'
p5416
aS'a'
p5417
aa(lp5418
S'christian'
p5419
aS'commits'
p5420
aa(lp5421
S'suicide'
p5422
aS'do'
p5423
aa(lp5424
g5423
aS'they'
p5425
aa(lp5426
g5425
aS'still'
p5427
aa(lp5428
g5427
aS'go'
p5429
aa(lp5430
S'to'
p5431
aS'heavenjoe'
p5432
aa(lp5433
g5432
aS'thorn'
p5434
aa(lp5435
g241
aS'petaling'
p5436
aa(lp5437
g5436
aS'jaya'
p5438
aa(lp5439
g5438
aS'poor'
p5440
aa(lp5441
g5440
aS'treatment'
p5442
aa(lp5443
g5442
aS'and'
p5444
aa(lp5445
g5444
aS'lack'
p5446
aa(lp5447
S'what'
p5448
aS'the'
p5449
aa(lp5450
g5449
aS'hell'
p5451
aa(lp5452
g5451
aS'was'
p5453
aa(lp5454
g5453
aS'homie'
p5455
aa(lp5456
g5455
aS'going'
p5457
aa(lp5458
g5457
aS'for'
p5459
aa(lp5460
g5459
aS'cause'
p5461
aa(lp5462
g5461
aS'it'
p5463
aa(lp5464
g5463
aS'wasnt'
p5465
aa(lp5466
g5465
aS'a'
p5467
aa(lp5468
S'suicide'
p5469
aS'dive'
p5470
aa(lp5471
S'mom'
p5472
aS'speaks'
p5473
aa(lp5474
g5473
aS'out'
p5475
aa(lp5476
g5475
aS'about'
p5477
aa(lp5478
g5477
aS'bullying'
p5479
aa(lp5480
g5479
aS'and'
p5481
aa(lp5482
g5481
aS'gang'
p5483
aa(lp5484
g5483
aS'rape'
p5485
aa(lp5486
g5485
aS'that'
p5487
aa(lp5488
g5487
aS'led'
p5489
aa(lp5490
S'to'
p5491
aS'her'
p5492
aa(lp5493
g5492
aS'daughters'
p5494
aa(lp5495
g5494
aS'suicide'
p5496
aa(lp5497
S'im'
p5498
aS'sorry'
p5499
aa(lp5500
g5499
aS'that'
p5501
aa(lp5502
S'im'
p5503
aS'always'
p5504
aa(lp5505
g5504
aS'a'
p5506
aa(lp5507
S'feel'
p5508
aS'so'
p5509
aa(lp5510
S'pull'
p5511
aS'a'
p5512
aa(lp5513
g5512
aS'hannah'
p5514
aa(lp5515
S'why'
p5516
aS'do'
p5517
aa(lp5518
S'i'
p5519
aS'sound'
p5520
aa(lp5521
g5520
aS'so'
p5522
aa(lp5523
S'when'
p5524
aS'i'
p5525
aa(lp5526
g5525
aS'tweet'
p5527
aa(lp5528
g5527
aS'stuff'
p5529
aa(lp5530
S'depressedleg'
p5531
aS'joint'
p5532
aa(lp5533
g5532
aS'hurts'
p5534
aa(lp5535
g5534
aS'so'
p5536
aa(lp5537
g5536
aS'muchno'
p5538
aa(lp5539
g5538
aS'help'
p5540
aa(lp5541
g5540
aS'no'
p5542
aa(lp5543
g5542
aS'hopenot'
p5544
aa(lp5545
g5544
aS'strong'
p5546
aa(lp5547
g5546
aS'enough'
p5548
aa(lp5549
g5548
aS'for'
p5550
aa(lp5551
g5550
aS'thisand'
p5552
aa(lp5553
g5552
aS'to'
p5554
aa(lp5555
g5554
aS'poor'
p5556
aa(lp5557
g5556
aS'for'
p5558
aa(lp5559
g5558
aS'drs'
p5560
aa(lp5561
g5560
aS'hate'
p5562
aa(lp5563
g5562
aS'life'
p5564
aa(lp5565
S'this'
p5566
aS'report'
p5567
aa(lp5568
g5567
aS'i'
p5569
aa(lp5570
S'do'
p5571
aS'for'
p5572
aa(lp5573
S'a'
p5574
aS'class'
p5575
aa(lp5576
S'is'
p5577
aS'making'
p5578
aa(lp5579
S'me'
p5580
aS'hella'
p5581
aa(lp5582
g5581
aS'depressed'
p5583
aa(lp5584
g5583
aS'for'
p5585
aa(lp5586
g5585
aS'real'
p5587
aa(lp5588
S'i'
p5589
aS'found'
p5590
aa(lp5591
g5590
aS'old'
p5592
aa(lp5593
g5592
aS'as'
p5594
aa(lp5595
g5594
aS'pictures'
p5596
aa(lp5597
g5596
aS'on'
p5598
aa(lp5599
g5598
aS'myspace'
p5600
aa(lp5601
g5600
aS'and'
p5602
aa(lp5603
S'so'
p5604
aS'drunk'
p5605
aa(lp5606
g5605
aS'and'
p5607
aa(lp5608
g5607
aS'hit'
p5609
aa(lp5610
g5609
aS'with'
p5611
aa(lp5612
g5611
aS'these'
p5613
aa(lp5614
g5613
aS'nostalgia'
p5615
aa(lp5616
g5615
aS'feels'
p5617
aa(lp5618
g5617
aS'bro'
p5619
aa(lp5620
g5619
aS'im'
p5621
aa(lp5622
S'gonna'
p5623
aS'suicide'
p5624
aa(lp5625
g5624
aS'tonight'
p5626
aa(lp5627
g5626
aS'baby'
p5628
aa(lp5629
g5628
aS'fuck'
p5630
aa(lp5631
S'me'
p5632
aS'wooooo'
p5633
aa(lp5634
S'essentially'
p5635
aS'it'
p5636
aa(lp5637
g5636
aS'leaves'
p5638
aa(lp5639
g5638
aS'two'
p5640
aa(lp5641
g5640
aS'rather'
p5642
aa(lp5643
g5642
aS'inflammatory'
p5644
aa(lp5645
g5644
aS'theories'
p5646
aa(lp5647
g5646
aS'assassination'
p5648
aa(lp5649
g5648
aS'or'
p5650
aa(lp5651
g5650
aS'a'
p5652
aa(lp5653
g5652
aS'murder'
p5654
aa(lp5655
S'suicide'
p5656
aS'both'
p5657
aa(lp5658
g5657
aS'of'
p5659
aa(lp5660
g5659
aS'which'
p5661
aa(lp5662
g5661
aS'are'
p5663
aa(lp5664
g5663
aS'flamboyant'
p5665
aa(lp5666
g5665
aS'at'
p5667
aa(lp5668
g5667
aS'best'
p5669
aa(lp5670
S'authors'
p5671
aS'of'
p5672
aa(lp5673
S'pain'
p5674
aS'be'
p5675
aa(lp5676
g5675
aS'like'
p5677
aa(lp5678
g5677
aS'were'
p5679
aa(lp5680
g5679
aS'sick'
p5681
aa(lp5682
g5681
aS'of'
p5683
aa(lp5684
g5683
aS'this'
p5685
aa(lp5686
g5685
aS'suicide'
p5687
aa(lp5688
S'dive'
p5689
aS'spamming'
p5690
aa(lp5691
g5690
aS'shit'
p5692
aa(lp5693
g5692
aS'fuck'
p5694
aa(lp5695
g5694
aS'you'
p5696
aa(lp5697
S'know'
p5698
aS'someone'
p5699
aa(lp5700
g5699
aS'struggling'
p5701
aa(lp5702
g5701
aS'this'
p5703
aa(lp5704
g5703
aS'number'
p5705
aa(lp5706
g5705
aS'may'
p5707
aa(lp5708
g5707
aS'save'
p5709
aa(lp5710
g5709
aS'their'
p5711
aa(lp5712
g5711
aS'life'
p5713
aa(lp5714
g5713
aS'8255'
p5715
aa(lp5716
g5715
aS'has'
p5717
aa(lp5718
g5717
aS'resources'
p5719
aa(lp5720
S'or'
p5721
aS'killer'
p5722
aa(lp5723
g5722
aS'clown'
p5724
aa(lp5725
g5724
aS'scare'
p5726
aa(lp5727
g5726
aS'prank'
p5728
aa(lp5729
g5728
aS'on'
p5730
aa(lp5731
g5730
aS'royalty'
p5732
aa(lp5733
g5732
aS'or'
p5734
aa(lp5735
g5734
aS'the'
p5736
aa(lp5737
g5736
aS'commeted'
p5738
aa(lp5739
g5738
aS'suicide'
p5740
aa(lp5741
g5740
aS'prank'
p5742
aa(lp5743
S'on'
p5744
aS'the'
p5745
aa(lp5746
g5745
aS'family'
p5747
aa(lp5748
g5747
aS'or'
p5749
aa(lp5750
g5749
aS'do'
p5751
aa(lp5752
S'a'
p5753
aS'you'
p5754
aa(lp5755
g5754
aS'and'
p5756
aa(lp5757
g5756
aS'jinx'
p5758
aa(lp5759
g5758
aS'argue'
p5760
aa(lp5761
g5760
aS'and'
p5762
aa(lp5763
g5762
aS'fight'
p5764
aa(lp5765
g5764
aS'prank'
p5766
aa(lp5767
S'dang'
p5768
aS'terrence'
p5769
aa(lp5770
g5769
aS'you'
p5771
aa(lp5772
g5771
aS'killed'
p5773
aa(lp5774
g5773
aS'yourself'
p5775
aa(lp5776
g5775
aS'i'
p5777
aa(lp5778
S'wait'
p5779
aS'until'
p5780
aa(lp5781
g5780
aS'next'
p5782
aa(lp5783
g5782
aS'season'
p5784
aa(lp5785
g5784
aS'to'
p5786
aa(lp5787
g5786
aS'see'
p5788
aa(lp5789
g5788
aS'if'
p5790
aa(lp5791
g5790
aS'he'
p5792
aa(lp5793
g5792
aS'wrote'
p5794
aa(lp5795
g5794
aS'a'
p5796
aa(lp5797
S'suicide'
p5798
aS'letter'
p5799
aa(lp5800
S'you'
p5801
aS'do'
p5802
aa(lp5803
S'not'
p5804
aS'joke'
p5805
aa(lp5806
S'suicide'
p5807
aS'its'
p5808
aa(lp5809
g5808
aS'not'
p5810
aa(lp5811
g5810
aS'funny'
p5812
aa(lp5813
S'archaic'
p5814
aS'barbaric'
p5815
aa(lp5816
g5815
aS'life'
p5817
aa(lp5818
g5817
aS'style'
p5819
aa(lp5820
g5819
aS'been'
p5821
aa(lp5822
g5821
aS'going'
p5823
aa(lp5824
g5823
aS'on'
p5825
aa(lp5826
g5825
aS'1400'
p5827
aa(lp5828
g5827
aS'plus'
p5829
aa(lp5830
g5829
aS'years'
p5831
aa(lp5832
g5831
aS'seems'
p5833
aa(lp5834
g5833
aS'inbred'
p5835
aa(lp5836
g5835
aS'in'
p5837
aa(lp5838
S'the'
p5839
aS'culture'
p5840
aa(lp5841
S'hot'
p5842
aS'dang'
p5843
aa(lp5844
g5843
aS'the'
p5845
aa(lp5846
g5845
aS'jerichobenoit'
p5847
aa(lp5848
g5847
aS'suicide'
p5849
aa(lp5850
S'dive'
p5851
aS'spot'
p5852
aa(lp5853
g5852
aS'but'
p5854
aa(lp5855
g5854
aS'with'
p5856
aa(lp5857
S'a'
p5858
aS'human'
p5859
aa(lp5860
g5859
aS'body'
p5861
aa(lp5862
g5861
aS'that'
p5863
aa(lp5864
S'was'
p5865
aS'cool'
p5866
aa(lp5867
g5866
aS'af'
p5868
aa(lp5869
S'a'
p5870
aS'wreck'
p5871
aa(lp5872
S'peace'
p5873
aS'angel'
p5874
aa(lp5875
S'just'
p5876
aS'keep'
p5877
aa(lp5878
g5877
aS'ya'
p5879
aa(lp5880
g5879
aS'head'
p5881
aa(lp5882
g5881
aS'held'
p5883
aa(lp5884
g5883
aS'high'
p5885
aa(lp5886
S'hate'
p5887
aS'this'
p5888
aa(lp5889
g5888
aS'movie'
p5890
aa(lp5891
g5890
aS'so'
p5892
aa(lp5893
S'we'
p5894
aS'know'
p5895
aa(lp5896
g5895
aS'what'
p5897
aa(lp5898
g5897
aS'causes'
p5899
aa(lp5900
g5899
aS'most'
p5901
aa(lp5902
g5901
aS'suffering'
p5903
aa(lp5904
g5903
aS'in'
p5905
aa(lp5906
g5905
aS'hell'
p5907
aa(lp5908
g5907
aS'and'
p5909
aa(lp5910
g5909
aS'you'
p5911
aa(lp5912
S'will'
p5913
aS'all'
p5914
aa(lp5915
g5914
aS'get'
p5916
aa(lp5917
g5916
aS'that'
p5918
aa(lp5919
g5918
aS'from'
p5920
aa(lp5921
g5920
aS'each'
p5922
aa(lp5923
g5922
aS'person'
p5924
aa(lp5925
g5924
aS'that'
p5926
aa(lp5927
S'committed'
p5928
aS'suicideamp'
p5929
aa(lp5930
g5929
aS'those'
p5931
aa(lp5932
g5931
aS'who'
p5933
aa(lp5934
g5933
aS'are'
p5935
aa(lp5936
g5935
aS'going'
p5937
aa(lp5938
g5937
aS'to'
p5939
aa(lp5940
S'illness'
p5941
aS'isnt'
p5942
aa(lp5943
S'only'
p5944
aS'reason'
p5945
aa(lp5946
g5945
aS'for'
p5947
aa(lp5948
g5947
aS'by'
p5949
aa(lp5950
g5949
aS'via'
p5951
aa(lp5952
S'so'
p5953
aS'fucking'
p5954
aa(lp5955
S'igbo'
p5956
aS'landing'
p5957
aa(lp5958
g5957
aS'is'
p5959
aa(lp5960
S'the'
p5961
aS'location'
p5962
aa(lp5963
g5962
aS'of'
p5964
aa(lp5965
g5964
aS'a'
p5966
aa(lp5967
g5966
aS'mass'
p5968
aa(lp5969
g5968
aS'suicide'
p5970
aa(lp5971
g5970
aS'of'
p5972
aa(lp5973
g5972
aS'igbo'
p5974
aa(lp5975
g5974
aS'slaves'
p5976
aa(lp5977
g5976
aS'that'
p5978
aa(lp5979
g5978
aS'occurred'
p5980
aa(lp5981
g5980
aS'in'
p5982
aa(lp5983
g5982
aS'1803'
p5984
aa(lp5985
g5984
aS'on'
p5986
aa(lp5987
g5986
aS'st'
p5988
aa(lp5989
g5988
aS'simons'
p5990
aa(lp5991
g5990
aS'island'
p5992
aa(lp5993
g5992
aS'ga'
p5994
aa(lp5995
S'untreated'
p5996
aS'depression'
p5997
aa(lp5998
g5997
aS'is'
p5999
aa(lp6000
S'the'
p6001
aS'risk'
p6002
aa(lp6003
g6002
aS'for'
p6004
aa(lp6005
g6004
aS'suicide'
p6006
aa(lp6007
S'among'
p6008
aS'youth'
p6009
aa(lp6010
g6009
aS'suicide'
p6011
aa(lp6012
S'the'
p6013
aS'3rd'
p6014
aa(lp6015
g6014
aS'leading'
p6016
aa(lp6017
g6016
aS'cause'
p6018
aa(lp6019
g6018
aS'of'
p6020
aa(lp6021
g6020
aS'death'
p6022
aa(lp6023
g6022
aS'in'
p6024
aa(lp6025
g6024
aS'ages'
p6026
aa(lp6027
g6026
aS'1524'
p6028
aa(lp6029
S'retired'
p6030
aS'california'
p6031
aa(lp6032
g6031
aS'highway'
p6033
aa(lp6034
g6033
aS'cop'
p6035
aa(lp6036
g6035
aS'to'
p6037
aa(lp6038
S'give'
p6039
aS'talk'
p6040
aa(lp6041
g6040
aS'on'
p6042
aa(lp6043
g6042
aS'suicide'
p6044
aa(lp6045
g6044
aS'prevention'
p6046
aa(lp6047
g6046
aS'at'
p6048
aa(lp6049
g6048
aS'suny'
p6050
aa(lp6051
g6050
aS'new'
p6052
aa(lp6053
g6052
aS'paltz'
p6054
aa(lp6055
S'dr'
p6056
aS'annette'
p6057
aa(lp6058
g6057
aS'beautrais'
p6059
aa(lp6060
g6059
aS'rural'
p6061
aa(lp6062
g6061
aS'suicide'
p6063
aa(lp6064
g6063
aS'more'
p6065
aa(lp6066
g6065
aS'likely'
p6067
aa(lp6068
g6067
aS'to'
p6069
aa(lp6070
S'be'
p6071
aS'young'
p6072
aa(lp6073
g6072
aS'farm'
p6074
aa(lp6075
g6074
aS'workers'
p6076
aa(lp6077
S'why'
p6078
aS'am'
p6079
aa(lp6080
S'i'
p6081
aS'such'
p6082
aa(lp6083
S'depressed'
p6084
aS'boring'
p6085
aa(lp6086
g6085
aS'person'
p6087
aa(lp6088
S'after'
p6089
aS'a'
p6090
aa(lp6091
g6090
aS'week'
p6092
aa(lp6093
g6092
aS'of'
p6094
aa(lp6095
g6094
aS'shorts'
p6096
aa(lp6097
g6096
aS'and'
p6098
aa(lp6099
g6098
aS'swimsuits'
p6100
aa(lp6101
g6100
aS'im'
p6102
aa(lp6103
g6102
aS'honestly'
p6104
aa(lp6105
g6104
aS'depressed'
p6106
aa(lp6107
g6106
aS'to'
p6108
aa(lp6109
g6108
aS'put'
p6110
aa(lp6111
g6110
aS'on'
p6112
aa(lp6113
S'real'
p6114
aS'pair'
p6115
aa(lp6116
g6115
aS'of'
p6117
aa(lp6118
g6117
aS'pants'
p6119
aa(lp6120
S'a'
p6121
aS'hs'
p6122
aa(lp6123
g6122
aS'girl'
p6124
aa(lp6125
S'and'
p6126
aS'leaves'
p6127
aa(lp6128
g6127
aS'behind'
p6129
aa(lp6130
g6129
aS'13'
p6131
aa(lp6132
g6131
aS'cassette'
p6133
aa(lp6134
g6133
aS'tapes'
p6135
aa(lp6136
S'for'
p6137
aS'specific'
p6138
aa(lp6139
g6138
aS'people'
p6140
aa(lp6141
g6140
aS'to'
p6142
aa(lp6143
S'to'
p6144
aS'explaining'
p6145
aa(lp6146
g6145
aS'why'
p6147
aa(lp6148
S'this'
p6149
aS'very'
p6150
aa(lp6151
g6150
aS'much'
p6152
aa(lp6153
g6152
aS'this'
p6154
aa(lp6155
S'lived'
p6156
aS'expertise'
p6157
aa(lp6158
g6157
aS'and'
p6159
aa(lp6160
g6159
aS'suicide'
p6161
aa(lp6162
S'prevention'
p6163
ag241
aa(lp6164
g241
aS'psychology'
p6165
aa(lp6166
g6165
aS'today'
p6167
aa(lp6168
S'got'
p6169
aS'depressed'
p6170
aa(lp6171
g6170
aS'thinking'
p6172
aa(lp6173
S'about'
p6174
aS'childhood'
p6175
aa(lp6176
g6175
aS'memories'
p6177
aa(lp6178
g6177
aS'and'
p6179
aa(lp6180
g6179
aS'old'
p6181
aa(lp6182
g6181
aS'friends'
p6183
aa(lp6184
S'last'
p6185
aS'month'
p6186
aa(lp6187
g6186
aS'is'
p6188
aa(lp6189
g6188
aS'nosker'
p6190
aa(lp6191
g6190
aS'555'
p6192
aa(lp6193
g6192
aS'im'
p6194
aa(lp6195
S'when'
p6196
aS'your'
p6197
aa(lp6198
g6197
aS'teen'
p6199
aa(lp6200
g6199
aS'thinks'
p6201
aa(lp6202
g6201
aS'about'
p6203
aa(lp6204
S'i'
p6205
aS'started'
p6206
aa(lp6207
g6206
aS'the'
p6208
aa(lp6209
g6208
aS'depressed'
p6210
aa(lp6211
S'and'
p6212
aS'suicidal'
p6213
aa(lp6214
g6213
aS'shit'
p6215
aa(lp6216
S'love'
p6217
aS'kills'
p6218
aa(lp6219
g6218
aS'six'
p6220
aa(lp6221
g6220
aS'times'
p6222
aa(lp6223
g6222
aS'more'
p6224
aa(lp6225
g6224
aS'indians'
p6226
aa(lp6227
g6226
aS'than'
p6228
aa(lp6229
g6228
aS'terror'
p6230
aa(lp6231
g6230
aS'attacks'
p6232
aa(lp6233
S'rebirth'
p6234
aS'whilce'
p6235
aa(lp6236
g6235
aS'portacio'
p6237
aa(lp6238
g6237
aS'variant'
p6239
aa(lp6240
g6239
aS'cover'
p6241
aa(lp6242
g6241
aS'nm'
p6243
aa(lp6244
S'lowkey'
p6245
aS'depressed'
p6246
aa(lp6247
S'but'
p6248
aS'highkey'
p6249
aa(lp6250
g6249
aS'happy'
p6251
aa(lp6252
S'is'
p6253
aS'heartbreaking'
p6254
aa(lp6255
S'i'
p6256
aS'liked'
p6257
aa(lp6258
g6257
aS'a'
p6259
aa(lp6260
S'from'
p6261
aS'i'
p6262
aa(lp6263
g6262
aS'hit'
p6264
aa(lp6265
g6264
aS'the'
p6266
aa(lp6267
g6266
aS'carrier'
p6268
aa(lp6269
g6268
aS'1800'
p6270
aa(lp6271
g6270
aS'suicide'
p6272
aa(lp6273
g6272
aS'trickshot'
p6274
aa(lp6275
g6274
ag241
aa(lp6276
g241
aS'bo2'
p6277
aa(lp6278
g6277
aS'trickshotting'
p6279
aa(lp6280
S'and'
p6281
aS'glorifies'
p6282
aa(lp6283
g6282
aS'suicide'
p6284
aa(lp6285
S'lt3'
p6286
aS'died'
p6287
aa(lp6288
g6287
aS'by'
p6289
aa(lp6290
g6289
aS'suicide'
p6291
aa(lp6292
S'in'
p6293
aS'memory'
p6294
aa(lp6295
g6294
aS'of'
p6296
aa(lp6297
g6296
aS'david'
p6298
aa(lp6299
g6298
aS'a'
p6300
aa(lp6301
g6300
aS'dill'
p6302
aa(lp6303
S'album'
p6304
aS'lync'
p6305
aa(lp6306
g6305
aS'lone'
p6307
aa(lp6308
g6307
ag241
aa(lp6309
g241
aS'stop'
p6310
aa(lp6311
g6310
aS'death'
p6312
aa(lp6313
g6312
aS'i'
p6314
aa(lp6315
S'hope'
p6316
aS'these'
p6317
aa(lp6318
g6317
aS'songs'
p6319
aa(lp6320
g6319
aS'give'
p6321
aa(lp6322
g6321
aS'you'
p6323
aa(lp6324
g6323
aS'a'
p6325
aa(lp6326
g6325
aS'shoulder'
p6327
aa(lp6328
g6327
aS'to'
p6329
aa(lp6330
g6329
aS'lean'
p6331
aa(lp6332
g6331
aS'on'
p6333
aa(lp6334
g6333
aS'stop'
p6335
aa(lp6336
g6335
aS'suicide'
p6337
aa(lp6338
g241
aS'depression'
p6339
aa(lp6340
S'attempt'
p6341
aS'suicide'
p6342
aa(lp6343
g6342
aS'specify'
p6344
aa(lp6345
g6344
aS'means'
p6346
aa(lp6347
g6346
aS'at'
p6348
aa(lp6349
g6348
aS'address'
p6350
aa(lp6351
g6350
aS'35xx'
p6352
aa(lp6353
g6352
aS'n'
p6354
aa(lp6355
g6354
aS'14th'
p6356
aa(lp6357
g6356
aS'st'
p6358
aa(lp6359
g6358
aS'at'
p6360
aa(lp6361
g6360
aS'time'
p6362
aa(lp6363
g6362
aS'20170401'
p6364
aa(lp6365
g6364
aS'180835'
p6366
aa(lp6367
S'no'
p6368
aS'u'
p6369
aa(lp6370
g6369
aS'didnt'
p6371
aa(lp6372
S'great'
p6373
aS'lets'
p6374
aa(lp6375
g6374
aS'put'
p6376
aa(lp6377
g6376
aS'a'
p6378
aa(lp6379
g6378
aS'misandist'
p6380
aa(lp6381
g6380
aS'feminist'
p6382
aa(lp6383
g6382
aS'in'
p6384
aa(lp6385
S'the'
p6386
aS'positions'
p6387
aa(lp6388
g6387
aS'of'
p6389
aa(lp6390
g6389
aS'top'
p6391
aa(lp6392
g6391
aS'for'
p6393
aa(lp6394
S'the'
p6395
aS'mental'
p6396
aa(lp6397
g6396
aS'health'
p6398
aa(lp6399
g6398
aS'depressed'
p6400
aa(lp6401
S'id'
p6402
aS'say'
p6403
aa(lp6404
g6403
aS'its'
p6405
aa(lp6406
g6405
aS'due'
p6407
aa(lp6408
g6407
aS'to'
p6409
aa(lp6410
S'the'
p6411
aS'fact'
p6412
aa(lp6413
g6412
aS'that'
p6414
aa(lp6415
g6414
aS'everyones'
p6416
aa(lp6417
g6416
aS'pretty'
p6418
aa(lp6419
g6418
aS'depressed'
p6420
aa(lp6421
S'to'
p6422
aS'deal'
p6423
aa(lp6424
S'with'
p6425
aS'backlash'
p6426
aa(lp6427
g6426
aS'in'
p6428
aa(lp6429
g6428
aS'any'
p6430
aa(lp6431
g6430
aS'form'
p6432
aa(lp6433
S'teenage'
p6434
aS'suicide'
p6435
aa(lp6436
g6435
aS'ft'
p6437
aa(lp6438
S'a'
p6439
aS'successfull'
p6440
aa(lp6441
g6440
aS'escape'
p6442
aa(lp6443
g6442
aS'from'
p6444
aa(lp6445
g6444
aS'an'
p6446
aa(lp6447
g6446
aS'attempted'
p6448
aa(lp6449
g6448
aS'in'
p6450
aa(lp6451
g6450
aS'on'
p6452
aa(lp6453
S'a'
p6454
aS'is'
p6455
aa(lp6456
g6455
aS'being'
p6457
aa(lp6458
g6457
aS'reported'
p6459
aa(lp6460
g6459
aS'as'
p6461
aa(lp6462
g6461
aS'attempted'
p6463
aa(lp6464
S'the'
p6465
aS'awkward'
p6466
aa(lp6467
g6466
aS'moment'
p6468
aa(lp6469
g6468
aS'people'
p6470
aa(lp6471
S'are'
p6472
aS'closer'
p6473
aa(lp6474
g6473
aS'friends'
p6475
aa(lp6476
g6475
aS'with'
p6477
aa(lp6478
g6477
aS'someone'
p6479
aa(lp6480
g6479
aS'that'
p6481
aa(lp6482
g6481
aS'thinks'
p6483
aa(lp6484
g6483
aS'suicide'
p6485
aa(lp6486
S'is'
p6487
aS'funny'
p6488
aa(lp6489
g6488
aS'verses'
p6490
aa(lp6491
g6490
aS'me'
p6492
aa(lp6493
g6492
aS'guess'
p6494
aa(lp6495
g6494
aS'annoying'
p6496
aa(lp6497
g6496
aS'is'
p6498
aa(lp6499
g6498
aS'worse'
p6500
aa(lp6501
g6500
aS'than'
p6502
aa(lp6503
g6502
aS'evil'
p6504
aa(lp6505
S'so'
p6506
aS'one'
p6507
aa(lp6508
g6507
aS'by'
p6509
aa(lp6510
g6509
aS'one'
p6511
aa(lp6512
g6511
aS'ech'
p6513
aa(lp6514
g6513
aS'of'
p6515
aa(lp6516
g6515
aS'you'
p6517
aa(lp6518
g6517
aS'get'
p6519
aa(lp6520
g6519
aS'all'
p6521
aa(lp6522
g6521
aS'from'
p6523
aa(lp6524
S'each'
p6525
aS'suicide'
p6526
aa(lp6527
S'suicidal'
p6528
aS'person'
p6529
aa(lp6530
g6529
aS'eternally'
p6531
aa(lp6532
g6531
aS'as'
p6533
aa(lp6534
g6533
aS'you'
p6535
aa(lp6536
g6535
aS'never'
p6537
aa(lp6538
g6537
aS'stopped'
p6539
aa(lp6540
g6539
aS'that'
p6541
aa(lp6542
S'depressed'
p6543
aS'still'
p6544
aa(lp6545
g6544
aS'misunderstood'
p6546
aa(lp6547
S'half'
p6548
aS'hour'
p6549
aa(lp6550
g6549
aS'afterwards'
p6551
aa(lp6552
g6551
aS'smh'
p6553
aa(lp6554
g6553
aS'lol'
p6555
aa(lp6556
S'day'
p6557
aS'at'
p6558
aa(lp6559
g6558
aS'a'
p6560
aa(lp6561
g6560
aS'time'
p6562
aa(lp6563
g6562
aS'thats'
p6564
aa(lp6565
g6564
aS'my'
p6566
aa(lp6567
g6566
aS'motto'
p6568
aa(lp6569
g6568
aS'and'
p6570
aa(lp6571
S'watched'
p6572
aS'13'
p6573
aa(lp6574
S'is'
p6575
aS'about'
p6576
aa(lp6577
g6576
aS'a'
p6578
aa(lp6579
S'girl'
p6580
aS'who'
p6581
aa(lp6582
g6581
aS'commits'
p6583
aa(lp6584
S'never'
p6585
aS'thoughts'
p6586
aa(lp6587
g6586
aS'of'
p6588
aa(lp6589
S'im'
p6590
aS'too'
p6591
aa(lp6592
g6591
aS'alive'
p6593
aa(lp6594
S'maldivian'
p6595
aS'model'
p6596
aa(lp6597
S'who'
p6598
aS'appeared'
p6599
aa(lp6600
g6599
aS'on'
p6601
aa(lp6602
S'the'
p6603
aS'cover'
p6604
aa(lp6605
g6604
aS'of'
p6606
aa(lp6607
g6606
aS'vogue'
p6608
aa(lp6609
g6608
aS'and'
p6610
aa(lp6611
g6610
aS'was'
p6612
aa(lp6613
g6612
aS'even'
p6614
aa(lp6615
g6614
aS'praised'
p6616
aa(lp6617
g6616
aS'by'
p6618
aa(lp6619
g6618
aS'her'
p6620
aa(lp6621
g6620
aS'president'
p6622
aa(lp6623
g6622
aS'for'
p6624
aa(lp6625
S'her'
p6626
aS'striking'
p6627
aa(lp6628
g6627
aS'looks'
p6629
aa(lp6630
g6629
aS'com'
p6631
aa(lp6632
S'not'
p6633
aS'depressedapril'
p6634
aa(lp6635
g6634
aS'fools'
p6636
aa(lp6637
g6636
aS'hahahaha'
p6638
aa(lp6639
S'depressed'
p6640
aS'tonight'
p6641
aa(lp6642
g6641
aS'whats'
p6643
aa(lp6644
g6643
aS'up'
p6645
aa(lp6646
g6645
aS'me'
p6647
aa(lp6648
g6647
aS'you'
p6649
aa(lp6650
g6649
aS'cant'
p6651
aa(lp6652
g6651
aS'be'
p6653
aa(lp6654
S'depressed'
p6655
aS'if'
p6656
aa(lp6657
S'you'
p6658
aS'have'
p6659
aa(lp6660
g6659
aS'no'
p6661
aa(lp6662
g6661
aS'soul'
p6663
aa(lp6664
S'taliban'
p6665
aS'suicide'
p6666
aa(lp6667
g6666
aS'attack'
p6668
aa(lp6669
g6668
aS'filmed'
p6670
aa(lp6671
g6670
aS'by'
p6672
aa(lp6673
g6672
aS'drone'
p6674
aa(lp6675
g6674
ag241
aa(lp6676
g241
aS'october'
p6677
aa(lp6678
g6677
aS'2016'
p6679
aa(lp6680
S'24'
p6681
aS'hours'
p6682
aa(lp6683
g6682
aS'ago'
p6684
aa(lp6685
g6684
aS'john'
p6686
aa(lp6687
g6686
aS'mayer'
p6688
aa(lp6689
g6688
aS'was'
p6690
aa(lp6691
g6690
aS'serenading'
p6692
aa(lp6693
g6692
aS'me'
p6694
aa(lp6695
g6694
aS'im'
p6696
aa(lp6697
S'just'
p6698
aS'want'
p6699
aa(lp6700
S'to'
p6701
aS'empower'
p6702
aa(lp6703
g6702
aS'all'
p6704
aa(lp6705
g6704
aS'the'
p6706
aa(lp6707
S'depressed'
p6708
aS'kids'
p6709
aa(lp6710
g6709
aS'to'
p6711
aa(lp6712
g6711
aS'still'
p6713
aa(lp6714
g6713
aS'be'
p6715
aa(lp6716
g6715
aS'here'
p6717
aa(lp6718
g6717
aS'we'
p6719
aa(lp6720
g6719
aS'got'
p6721
aa(lp6722
g6721
aS'this'
p6723
aa(lp6724
g6723
aS'yall'
p6725
aa(lp6726
S'let'
p6727
aS'my'
p6728
aa(lp6729
S'suicide'
p6730
aS'begin'
p6731
aa(lp6732
S'i'
p6733
aS'reallyone'
p6734
aa(lp6735
g6734
aS'of'
p6736
aa(lp6737
S'biggest'
p6738
aS'fears'
p6739
aa(lp6740
g6739
aS'was'
p6741
aa(lp6742
g6741
aS'that'
p6743
aa(lp6744
g6743
aS'they'
p6745
aa(lp6746
g6745
aS'would'
p6747
aa(lp6748
g6747
aS'romanticize'
p6749
aa(lp6750
g6749
aS'suicide'
p6751
aa(lp6752
g6751
aS'or'
p6753
aa(lp6754
g6753
aS'teen'
p6755
aa(lp6756
g6755
aS'tragedy'
p6757
aa(lp6758
g6757
aS'or'
p6759
aa(lp6760
g6759
aS'depression'
p6761
aa(lp6762
S'are'
p6763
aS'struggling'
p6764
aa(lp6765
g6764
aS'please'
p6766
aa(lp6767
g6766
aS'connect'
p6768
aa(lp6769
g6768
aS'with'
p6770
aa(lp6771
S'someone'
p6772
aS'try'
p6773
aa(lp6774
g6773
aS'in'
p6775
aa(lp6776
S'the'
p6777
aS'uk'
p6778
aa(lp6779
g6778
aS'your'
p6780
aa(lp6781
g6780
aS'matters'
p6782
aa(lp6783
S'lmao'
p6784
aS'you'
p6785
aa(lp6786
g6785
aS'right'
p6787
aa(lp6788
g6787
aS'but'
p6789
aa(lp6790
g6789
aS'like'
p6791
aa(lp6792
g6791
aS'suicide'
p6793
aa(lp6794
g6793
aS'was'
p6795
aa(lp6796
g6795
aS'such'
p6797
aa(lp6798
S'a'
p6799
aS'cowardly'
p6800
aa(lp6801
g6800
aS'way'
p6802
aa(lp6803
S'peter'
p6804
aS'robertson'
p6805
aa(lp6806
g6805
aS'is'
p6807
aa(lp6808
S'the'
p6809
aS'best'
p6810
aa(lp6811
g6810
aS'edm'
p6812
aa(lp6813
g6812
aS'artist'
p6814
aa(lp6815
g6814
aS'his'
p6816
aa(lp6817
g6816
aS'best'
p6818
aa(lp6819
g6818
aS'song'
p6820
aa(lp6821
g6820
aS'is'
p6822
aa(lp6823
g6822
aS'that'
p6824
aa(lp6825
g6824
aS'depressed'
p6826
aa(lp6827
g6826
aS'robot'
p6828
aa(lp6829
g6828
aS'one'
p6830
aa(lp6831
g6830
aS'porter'
p6832
aa(lp6833
g6832
aS'fans'
p6834
aa(lp6835
S'it'
p6836
aS'turns'
p6837
aa(lp6838
g6837
aS'out'
p6839
aa(lp6840
g6839
aS'i'
p6841
aa(lp6842
g6841
aS'wasnt'
p6843
aa(lp6844
g6843
aS'depressed'
p6845
aa(lp6846
S'was'
p6847
aS'just'
p6848
aa(lp6849
g6848
aS'sober'
p6850
aa(lp6851
S'depressed'
p6852
aS'crab'
p6853
aa(lp6854
g6853
aS'stays'
p6855
aa(lp6856
g6855
aS'buried'
p6857
aa(lp6858
g6857
aS'under'
p6859
aa(lp6860
g6859
aS'sand'
p6861
aa(lp6862
g6861
aS'until'
p6863
aa(lp6864
g6863
aS'2'
p6865
aa(lp6866
g6865
aS'pm'
p6867
aa(lp6868
S'the'
p6869
aS'right'
p6870
aa(lp6871
g6870
aS'wing'
p6872
aa(lp6873
g6872
aS'doesnt'
p6874
aa(lp6875
g6874
aS'want'
p6876
aa(lp6877
S'to'
p6878
aS'say'
p6879
aa(lp6880
S'that'
p6881
aS'either'
p6882
aa(lp6883
g6882
aS'cos'
p6884
aa(lp6885
g6884
aS'swedes'
p6886
aa(lp6887
g6886
aS'are'
p6888
aa(lp6889
g6888
aS'brainwashed'
p6890
aa(lp6891
g6890
aS'and'
p6892
aa(lp6893
g6892
aS'stupid'
p6894
aa(lp6895
g6894
aS'and'
p6896
aa(lp6897
g6896
aS'supporting'
p6898
aa(lp6899
g6898
aS'weed'
p6900
aa(lp6901
g6900
aS'legalization'
p6902
aa(lp6903
g6902
aS'is'
p6904
aa(lp6905
g6904
aS'political'
p6906
aa(lp6907
g6906
aS'suicide'
p6908
aa(lp6909
S'vogue'
p6910
aS'commits'
p6911
aa(lp6912
S'a'
p6913
aS'hostel'
p6914
aa(lp6915
g6914
aS'in'
p6916
aa(lp6917
S'imagine'
p6918
aS'being'
p6919
aa(lp6920
g6919
aS'this'
p6921
aa(lp6922
g6921
aS'ignorant'
p6923
aa(lp6924
S'suicide'
p6925
aS'gt'
p6926
aa(lp6927
S'one'
p6928
aS'should'
p6929
aa(lp6930
S'never'
p6931
aS'take'
p6932
aa(lp6933
g6932
aS'an'
p6934
aa(lp6935
g6934
aS'im'
p6936
aa(lp6937
S'depressed'
p6938
aS'message'
p6939
aa(lp6940
g6939
aS'lightly'
p6941
aa(lp6942
g6941
aS'one'
p6943
aa(lp6944
S'never'
p6945
aS'use'
p6946
aa(lp6947
g6946
aS'an'
p6948
aa(lp6949
S'lightly'
p6950
aS'either'
p6951
aa(lp6952
S'playlist'
p6953
aS'family'
p6954
aa(lp6955
g6954
aS'guy'
p6956
aa(lp6957
g6956
ag241
aa(lp6958
g241
aS'joe'
p6959
aa(lp6960
g6959
aS'commits'
p6961
aa(lp6962
S'suicide'
p6963
aS'2'
p6964
aa(lp6965
S'im'
p6966
aS'severely'
p6967
aa(lp6968
g6967
aS'depressed'
p6969
aa(lp6970
g6969
aS'youre'
p6971
aa(lp6972
g6971
aS'probably'
p6973
aa(lp6974
g6973
aS'waiting'
p6975
aa(lp6976
S'the'
p6977
aS'april'
p6978
aa(lp6979
S'fools'
p6980
aS'there'
p6981
aa(lp6982
S'no'
p6983
aS'april'
p6984
aa(lp6985
S'whoevers'
p6986
aS'getting'
p6987
aa(lp6988
g6987
aS'depressed'
p6989
aa(lp6990
g6989
aS'dont'
p6991
aa(lp6992
g6991
ag241
aa(lp6993
g241
aS'theres'
p6994
aa(lp6995
g6994
aS'so'
p6996
aa(lp6997
S'many'
p6998
aS'potential'
p6999
aa(lp7000
g6999
aS'resolutions'
p7001
aa(lp7002
g7001
aS'its'
p7003
aa(lp7004
g7003
aS'ridiculous'
p7005
aa(lp7006
S'this'
p7007
aS'may'
p7008
aa(lp7009
g7008
aS'sound'
p7010
aa(lp7011
g7010
aS'harsh'
p7012
aa(lp7013
g7012
aS'it'
p7014
aa(lp7015
g7014
aS'probably'
p7016
aa(lp7017
g7016
aS'is'
p7018
aa(lp7019
g7018
aS'but'
p7020
aa(lp7021
g7020
aS'at'
p7022
aa(lp7023
g7022
aS'times'
p7024
aa(lp7025
g7024
aS'its'
p7026
aa(lp7027
g7026
aS'hard'
p7028
aa(lp7029
g7028
aS'for'
p7030
aa(lp7031
g7030
aS'me'
p7032
aa(lp7033
S'to'
p7034
aS'sympathize'
p7035
aa(lp7036
g7035
aS'with'
p7037
aa(lp7038
g7037
aS'ppl'
p7039
aa(lp7040
g7039
aS'who'
p7041
aa(lp7042
g7041
aS'commit'
p7043
aa(lp7044
S'suicide'
p7045
aS'i'
p7046
aa(lp7047
S'dont'
p7048
aS'mean'
p7049
aa(lp7050
g7049
aS'to'
p7051
aa(lp7052
g7051
aS'offend'
p7053
aa(lp7054
g7053
aS'anyone'
p7055
aa(lp7056
S'suicide'
p7057
aS'blond'
p7058
aa(lp7059
S'gonna'
p7060
aS'make'
p7061
aa(lp7062
g7061
aS'an'
p7063
aa(lp7064
g7063
aS'original'
p7065
aa(lp7066
g7065
aS'project'
p7067
aa(lp7068
g7067
aS'story'
p7069
aa(lp7070
g7069
aS'thing'
p7071
aa(lp7072
S'its'
p7073
aS'gonna'
p7074
aa(lp7075
g7074
aS'be'
p7076
aa(lp7077
g7076
aS'based'
p7078
aa(lp7079
g7078
aS'on'
p7080
aa(lp7081
S'a'
p7082
aS'group'
p7083
aa(lp7084
g7083
aS'of'
p7085
aa(lp7086
g7085
aS'34'
p7087
aa(lp7088
g7087
aS'people'
p7089
aa(lp7090
S'are'
p7091
aS'in'
p7092
aa(lp7093
S'a'
p7094
aS'different'
p7095
aa(lp7096
g7095
aS'world'
p7097
aa(lp7098
g7097
aS'via'
p7099
aa(lp7100
g7099
aS'suicide'
p7101
aa(lp7102
S'a'
p7103
aS'sting'
p7104
aa(lp7105
g7104
aS'and'
p7106
aa(lp7107
g7106
aS'a'
p7108
aa(lp7109
g7108
aS'soldiers'
p7110
aa(lp7111
g7110
aS'suicide'
p7112
aa(lp7113
g7112
aS'army'
p7114
aa(lp7115
g7114
aS'and'
p7116
aa(lp7117
g7116
aS'reporter'
p7118
aa(lp7119
g7118
aS'behind'
p7120
aa(lp7121
g7120
aS'sahayak'
p7122
aa(lp7123
g7122
aS'story'
p7124
aa(lp7125
g7124
aS'both'
p7126
aa(lp7127
g7126
aS'file'
p7128
aa(lp7129
g7128
aS'police'
p7130
aa(lp7131
g7130
aS'complaints'
p7132
aa(lp7133
S'yeahhhh'
p7134
aS'thanks'
p7135
aa(lp7136
g7135
aS'and'
p7137
aa(lp7138
g7137
aS'bro'
p7139
aa(lp7140
S'havent'
p7141
aS'even'
p7142
aa(lp7143
g7142
aS'heard'
p7144
aa(lp7145
g7144
aS'itbout'
p7146
aa(lp7147
g7146
aS'to'
p7148
aa(lp7149
g7148
aS'call'
p7150
aa(lp7151
g7150
aS'u'
p7152
aa(lp7153
g7152
aS'on'
p7154
aa(lp7155
S'the'
p7156
aS'phone'
p7157
aa(lp7158
g7157
aS'and'
p7159
aa(lp7160
g7159
aS'listen'
p7161
aa(lp7162
g7161
aS'through'
p7163
aa(lp7164
g7163
aS'the'
p7165
aa(lp7166
g7165
aS'mic'
p7167
aa(lp7168
S'suicide'
p7169
aS'porn'
p7170
aa(lp7171
g7170
aS'licking'
p7172
aa(lp7173
g7172
aS'thumbnails'
p7174
aa(lp7175
S'joker'
p7176
aS'suicide'
p7177
aa(lp7178
S'squad'
p7179
aS'dc'
p7180
aa(lp7181
g7180
aS'comics'
p7182
aa(lp7183
g7182
aS'movie'
p7184
aa(lp7185
g7184
aS'for'
p7186
aa(lp7187
g7186
aS'iphone'
p7188
aa(lp7189
g7188
aS'55s'
p7190
aa(lp7191
g7190
aS'white'
p7192
aa(lp7193
g7192
aS'case'
p7194
aa(lp7195
g7194
ag241
aa(lp7196
S'funny'
p7197
aS'how'
p7198
aa(lp7199
g7198
aS'people'
p7200
aa(lp7201
g7200
aS'were'
p7202
aa(lp7203
g7202
aS'putting'
p7204
aa(lp7205
g7204
aS'him'
p7206
aa(lp7207
g7206
aS'and'
p7208
aa(lp7209
g7208
aS'some'
p7210
aa(lp7211
g7210
aS'were'
p7212
aa(lp7213
g7212
aS'even'
p7214
aa(lp7215
g7214
aS'talking'
p7216
aa(lp7217
g7216
aS'about'
p7218
aa(lp7219
S'suicide'
p7220
aS'lolz'
p7221
aa(lp7222
g7221
aS'guy'
p7223
aa(lp7224
g7223
aS'is'
p7225
aa(lp7226
g7225
aS'okay'
p7227
aa(lp7228
g7227
aS'and'
p7229
aa(lp7230
g7229
aS'enjoying'
p7231
aa(lp7232
g7231
aS'the'
p7233
aa(lp7234
g7233
aS'publicity'
p7235
aa(lp7236
S'brandon'
p7237
aS'depressed'
p7238
aa(lp7239
g7238
aS'mcrobb'
p7240
aa(lp7241
S'people'
p7242
aS'support'
p7243
aa(lp7244
g7243
aS'feeling'
p7245
aa(lp7246
S'depressed'
p7247
aS'help'
p7248
aa(lp7249
g7248
aS'him'
p7250
aa(lp7251
g7250
aS'out'
p7252
aa(lp7253
g7252
aS'talk'
p7254
aa(lp7255
S'to'
p7256
aS'him'
p7257
aa(lp7258
S'a'
p7259
aS'little'
p7260
aa(lp7261
g7260
aS'more'
p7262
aa(lp7263
g7262
aS'depressed'
p7264
aa(lp7265
S'than'
p7266
aS'i'
p7267
aa(lp7268
S'was'
p7269
aS'yesterday'
p7270
aa(lp7271
S'is'
p7272
aS'such'
p7273
aa(lp7274
S'sad'
p7275
aS'thing'
p7276
aa(lp7277
g7276
aS'like'
p7278
aa(lp7279
g7278
aS'people'
p7280
aa(lp7281
g7280
aS'always'
p7282
aa(lp7283
g7282
aS'think'
p7284
aa(lp7285
S'about'
p7286
aS'what'
p7287
aa(lp7288
g7287
aS'they'
p7289
aa(lp7290
g7289
aS'could'
p7291
aa(lp7292
S'have'
p7293
aS'done'
p7294
aa(lp7295
g7294
aS'to'
p7296
aa(lp7297
g7296
aS'help'
p7298
aa(lp7299
S'just'
p7300
aS'saw'
p7301
aa(lp7302
g7301
aS'the'
p7303
aa(lp7304
g7303
aS'thirteen'
p7305
aa(lp7306
S'why'
p7307
aS'suicide'
p7308
aa(lp7309
g7308
aS'scene'
p7310
aa(lp7311
g7310
aS'and'
p7312
aa(lp7313
g7312
aS'now'
p7314
aa(lp7315
S'im'
p7316
aS'triggered'
p7317
aa(lp7318
g7317
aS'fuck'
p7319
aa(lp7320
S'it'
p7321
aS'so'
p7322
aa(lp7323
g7322
aS'popular'
p7324
aa(lp7325
g7324
aS'to'
p7326
aa(lp7327
g7326
aS'glorify'
p7328
aa(lp7329
g7328
aS'self'
p7330
aa(lp7331
g7330
aS'harm'
p7332
aa(lp7333
g7332
aS'and'
p7334
aa(lp7335
S'suicide'
p7336
aS'on'
p7337
aa(lp7338
g7337
aS'twitter'
p7339
aa(lp7340
g7339
aS'shit'
p7341
aa(lp7342
g7341
aS'is'
p7343
aa(lp7344
g7343
aS'mad'
p7345
aa(lp7346
g7345
aS'annoying'
p7347
aa(lp7348
g7347
aS'and'
p7349
aa(lp7350
g7349
aS'is'
p7351
aa(lp7352
g7351
aS'nothing'
p7353
aa(lp7354
S'to'
p7355
aS'joke'
p7356
aa(lp7357
g7356
aS'around'
p7358
aa(lp7359
g7358
aS'about'
p7360
aa(lp7361
S'if'
p7362
aS'gonzaga'
p7363
aa(lp7364
g7363
aS'win'
p7365
aa(lp7366
g7365
aS'the'
p7367
aa(lp7368
g7367
aS'title'
p7369
aa(lp7370
g7369
aS'or'
p7371
aa(lp7372
g7371
aS'loses'
p7373
aa(lp7374
g7373
aS'in'
p7375
aa(lp7376
S'a'
p7377
aS'close'
p7378
aa(lp7379
g7378
aS'game'
p7380
aa(lp7381
g7380
aS'every'
p7382
aa(lp7383
g7382
aS'wvu'
p7384
aa(lp7385
g7384
aS'nigga'
p7386
aa(lp7387
g7386
aS'who'
p7388
aa(lp7389
g7388
aS'choked'
p7390
aa(lp7391
g7390
aS'vs'
p7392
aa(lp7393
g7392
aS'them'
p7394
aa(lp7395
g7394
aS'should'
p7396
aa(lp7397
g7396
aS'b'
p7398
aa(lp7399
g7398
aS'depressed'
p7400
aa(lp7401
S'but'
p7402
aS'luxgt'
p7403
aa(lp7404
g7403
aS'history'
p7405
aa(lp7406
S'sad'
p7407
aS'reality'
p7408
aa(lp7409
g7408
aS'for'
p7410
aa(lp7411
g7410
aS'us'
p7412
aa(lp7413
g7412
aS'with'
p7414
aa(lp7415
g7414
aS'mental'
p7416
aa(lp7417
S'illness'
p7418
aS'well'
p7419
aa(lp7420
g7419
aS'likely'
p7421
aa(lp7422
g7421
aS'die'
p7423
aa(lp7424
g7423
aS'of'
p7425
aa(lp7426
S'suicide'
p7427
aS'the'
p7428
aa(lp7429
S'only'
p7430
aS'question'
p7431
aa(lp7432
g7431
aS'is'
p7433
aa(lp7434
g7433
aS'when'
p7435
aa(lp7436
S'suicide'
p7437
aS'silence'
p7438
aa(lp7439
g7438
ag241
aa(lp7440
g241
aS'you'
p7441
aa(lp7442
g7441
aS'only'
p7443
aa(lp7444
g7443
aS'live'
p7445
aa(lp7446
g7445
aS'once'
p7447
aa(lp7448
g7447
aS'ft'
p7449
aa(lp7450
g7449
aS'randy'
p7451
aa(lp7452
g7451
aS'blythe'
p7453
aa(lp7454
g7453
ag241
aa(lp7455
g241
aS'lamb'
p7456
aa(lp7457
g7456
aS'of'
p7458
aa(lp7459
g7458
aS'god'
p7460
aa(lp7461
S'im'
p7462
aS'just'
p7463
aa(lp7464
g7463
aS'so'
p7465
aa(lp7466
g7465
aS'fuckin'
p7467
aa(lp7468
g7467
aS'depressed'
p7469
aa(lp7470
S'just'
p7471
aS'cant'
p7472
aa(lp7473
g7472
aS'seem'
p7474
aa(lp7475
g7474
aS'to'
p7476
aa(lp7477
S'this'
p7478
aS'slump'
p7479
aa(lp7480
S'3'
p7481
aS'hours'
p7482
aa(lp7483
g7482
aS'until'
p7484
aa(lp7485
g7484
aS'mine'
p7486
aa(lp7487
g7486
aS'and'
p7488
aa(lp7489
g7488
aS'wrens'
p7490
aa(lp7491
g7490
aS'suicide'
p7492
aa(lp7493
g7492
aS'pact'
p7494
aa(lp7495
g7494
aS'comes'
p7496
aa(lp7497
g7496
aS'to'
p7498
aa(lp7499
g7498
aS'fruition'
p7500
aa(lp7501
S'she'
p7502
aS'says'
p7503
aa(lp7504
g7503
aS'she'
p7505
aa(lp7506
g7505
aS'depressed'
p7507
aa(lp7508
S'and'
p7509
aS'its'
p7510
aa(lp7511
g7510
aS'all'
p7512
aa(lp7513
g7512
aS'because'
p7514
aa(lp7515
g7514
aS'of'
p7516
aa(lp7517
g7516
aS'me'
p7518
aa(lp7519
g7518
aS'thinking'
p7520
aa(lp7521
g7520
aS'of'
p7522
aa(lp7523
g7522
aS'her'
p7524
aa(lp7525
g7524
aS'pain'
p7526
aa(lp7527
g7526
aS'takes'
p7528
aa(lp7529
g7528
aS'away'
p7530
aa(lp7531
g7530
aS'my'
p7532
aa(lp7533
g7532
aS'ability'
p7534
aa(lp7535
g7534
aS'to'
p7536
aa(lp7537
g7536
aS'breathe'
p7538
aa(lp7539
S'if'
p7540
aS'this'
p7541
aa(lp7542
g7541
aS'person'
p7543
aa(lp7544
g7543
aS'wanted'
p7545
aa(lp7546
S'like'
p7547
aS'i'
p7548
aa(lp7549
g7548
aS'a'
p7550
aa(lp7551
g7550
aS'total'
p7552
aa(lp7553
g7552
aS'fuck'
p7554
aa(lp7555
g7554
aS'up'
p7556
aa(lp7557
g7556
aS'and'
p7558
aa(lp7559
S'depressed'
p7560
aS'it'
p7561
aa(lp7562
g7561
aS'fucking'
p7563
aa(lp7564
g7563
aS'worked'
p7565
aa(lp7566
S'tweet'
p7567
aS'for'
p7568
aa(lp7569
S'the'
p7570
aS'the'
p7571
aa(lp7572
g7571
aS'kids'
p7573
aa(lp7574
g7573
aS'that'
p7575
aa(lp7576
g7575
aS'are'
p7577
aa(lp7578
S'but'
p7579
aS'cant'
p7580
aa(lp7581
g7580
aS'voice'
p7582
aa(lp7583
g7582
aS'it'
p7584
aa(lp7585
g7584
aS'to'
p7586
aa(lp7587
g7586
aS'anyone'
p7588
aa(lp7589
g7588
aS'to'
p7590
aa(lp7591
g7590
aS'let'
p7592
aa(lp7593
g7592
aS'them'
p7594
aa(lp7595
g7594
aS'know'
p7596
aa(lp7597
g7596
aS'they'
p7598
aa(lp7599
S'shouldnt'
p7600
aS'be'
p7601
aa(lp7602
g7601
aS'ashamed'
p7603
aa(lp7604
g7603
aS'of'
p7605
aa(lp7606
g7605
aS'their'
p7607
aa(lp7608
g7607
aS'thoughts'
p7609
aa(lp7610
S'suicide'
p7611
aS'amp'
p7612
aa(lp7613
g7612
aS'mental'
p7614
aa(lp7615
S'health'
p7616
aS'resource'
p7617
aa(lp7618
g7617
aS'center'
p7619
aa(lp7620
S'been'
p7621
aS'getting'
p7622
aa(lp7623
g7622
aS'better'
p7624
aa(lp7625
g7624
aS'with'
p7626
aa(lp7627
g7626
aS'being'
p7628
aa(lp7629
S'and'
p7630
aS'everything'
p7631
aa(lp7632
g7631
aS'lately'
p7633
aa(lp7634
S'sum1'
p7635
aS'ask'
p7636
aa(lp7637
g7636
aS'if'
p7638
aa(lp7639
g7638
aS'my'
p7640
aa(lp7641
g7640
aS'honeycomb'
p7642
aa(lp7643
g7642
aS'tattoo'
p7644
aa(lp7645
g7644
aS'was'
p7646
aa(lp7647
g7646
aS'serotonin'
p7648
aa(lp7649
g7648
aS'like'
p7650
aa(lp7651
g7650
aS'breh'
p7652
aa(lp7653
g7652
aS'thts'
p7654
aa(lp7655
g7654
aS'such'
p7656
aa(lp7657
S'a'
p7658
aS'depressing'
p7659
aa(lp7660
g7659
aS'question'
p7661
aa(lp7662
g7661
aS'do'
p7663
aa(lp7664
S'i'
p7665
aS'b'
p7666
aa(lp7667
g7666
aS'lookin'
p7668
aa(lp7669
g7668
aS'depressed'
p7670
aa(lp7671
S'it'
p7672
aS'shows'
p7673
aa(lp7674
g7673
aS'tht'
p7675
aa(lp7676
g7675
aS'easily'
p7677
aa(lp7678
S'yea'
p7679
aS'lifes'
p7680
aa(lp7681
g7680
aS'greatif'
p7682
aa(lp7683
g7682
aS'you'
p7684
aa(lp7685
g7684
aS'count'
p7686
aa(lp7687
g7686
aS'being'
p7688
aa(lp7689
S'depressed'
p7690
aS'everyday'
p7691
aa(lp7692
S'rebirth'
p7693
aS'nycc'
p7694
aa(lp7695
g7694
aS'jim'
p7696
aa(lp7697
g7696
aS'lee'
p7698
aa(lp7699
g7698
aS'foil'
p7700
aa(lp7701
g7700
aS'variant'
p7702
aa(lp7703
S'cover'
p7704
aS'vf'
p7705
aa(lp7706
g7705
aS'condition'
p7707
aa(lp7708
S'theyre'
p7709
aS'consistent'
p7710
aa(lp7711
g7710
aS'huhsuicide'
p7712
aa(lp7713
g7712
aS'heart'
p7714
aa(lp7715
g7714
aS'attacks'
p7716
aa(lp7717
g7716
aS'n'
p7718
aa(lp7719
g7718
aS'often'
p7720
aa(lp7721
g7720
aS'no'
p7722
aa(lp7723
g7722
aS'autopsyseveral'
p7724
aa(lp7725
g7724
aS'no'
p7726
aa(lp7727
g7726
aS'family'
p7728
aa(lp7729
S'wtf'
p7730
aS'is'
p7731
aa(lp7732
g7731
aS'yall'
p7733
aa(lp7734
g7733
aS'so'
p7735
aa(lp7736
S'about'
p7737
aS'yall'
p7738
aa(lp7739
g7738
aS'partying'
p7740
aa(lp7741
g7740
aS'every'
p7742
aa(lp7743
g7742
aS'week'
p7744
aa(lp7745
g7744
aS'so'
p7746
aa(lp7747
g7746
aS'yall'
p7748
aa(lp7749
g7748
aS'cant'
p7750
aa(lp7751
S'be'
p7752
aS'that'
p7753
aa(lp7754
S'we'
p7755
aS'played'
p7756
aa(lp7757
g7756
aS'mobage'
p7758
aa(lp7759
g7758
aS'together'
p7760
aa(lp7761
g7760
aS'and'
p7762
aa(lp7763
g7762
aS'talked'
p7764
aa(lp7765
g7764
aS'on'
p7766
aa(lp7767
g7766
aS'line'
p7768
aa(lp7769
g7768
aS'but'
p7770
aa(lp7771
g7770
aS'he'
p7772
aa(lp7773
g7772
aS'got'
p7774
aa(lp7775
S'and'
p7776
aS'vanished'
p7777
aa(lp7778
g7777
ag241
aa.